ccollections
defaultdict
p0
(c__builtin__
float
p1
tp2
Rp3
(I8
I9
I0
tp4
F-0.21617161716171607
s(I12
I5
I1
tp5
F-0.005524861878453048
s(I5
I2
I1
tp6
F-0.04919499105545621
s(I13
I4
I0
tp7
F0.03954802259887008
s(I19
I10
I0
tp8
F0.46379227985082083
s(I17
I5
I0
tp9
F0.30914826498422715
s(I3
I7
I0
tp10
F-0.02491529148140194
s(I11
I5
I1
tp11
F0.010638297872340441
s(I1
I2
I0
tp12
F0.25429913392882236
s(I18
I3
I1
tp13
F-0.33653846153846145
s(I14
I10
I0
tp14
F-0.284102564102564
s(I4
I1
I1
tp15
F-0.052158273381294945
s(I12
I7
I0
tp16
F-0.014234875444839866
s(I17
I9
I0
tp17
F-0.0469056864568171
s(I18
I10
I1
tp18
F-0.43690349946977697
s(I11
I9
I1
tp19
F0.08183434813606627
s(I16
I6
I0
tp20
F0.07037908177291793
s(I9
I9
I0
tp21
F-0.20847397406288806
s(I15
I2
I1
tp22
F-0.2
s(I10
I10
I1
tp23
F-0.085411896094634
s(I21
I7
I0
tp24
F0.9199999999999999
s(I3
I9
I1
tp25
F-0.3634735899731422
s(I7
I5
I0
tp26
F0.10851451072751185
s(I17
I6
I1
tp27
F-0.19382716049382698
s(I20
I8
I0
tp28
F0.7891717151776252
s(I18
I1
I0
tp29
F0.536231884057971
s(I3
I4
I1
tp30
F-0.18198198198198226
s(I21
I9
I1
tp31
F-0.6331592689295045
s(I11
I2
I0
tp32
F0.2322899505766064
s(I16
I10
I0
tp33
F-0.2983146773238181
s(I14
I8
I1
tp34
F-0.0475057962253118
s(I4
I3
I0
tp35
F0.20150612923592084
s(I2
I4
I0
tp36
F0.15138111714522953
s(I10
I6
I1
tp37
F0.1563794806124934
s(I8
I10
I0
tp38
F-0.2954596287184067
s(I14
I5
I1
tp39
F-0.09941520467836255
s(I17
I10
I1
tp40
F-0.3190621814475024
s(I20
I4
I0
tp41
F0.8416666666666665
s(I13
I3
I0
tp42
F0.23893805309734514
s(I21
I5
I1
tp43
F-0.7045454545454546
s(I6
I2
I0
tp44
F0.25555728909862085
s(I7
I7
I1
tp45
F-0.15405651777575197
s(I16
I5
I1
tp46
F-0.08783783783783788
s(I9
I10
I1
tp47
F-0.16468224938411133
s(I17
I4
I0
tp48
F0.26744186046511625
s(I20
I10
I1
tp49
F-0.6201716738197417
s(I3
I6
I0
tp50
F0.07000914974383111
s(I1
I1
I0
tp51
F0.31771014025366784
s(I7
I10
I1
tp52
F-0.3309178743961359
s(I9
I3
I1
tp53
F0.12974404236540163
s(I2
I2
I1
tp54
F-0.10825199645075417
s(I21
I10
I0
tp55
F0.937885681065427
s(I16
I9
I1
tp56
F-0.2499999999999994
s(I19
I1
I0
tp57
F0.792452830188679
s(I17
I8
I0
tp58
F0.051737751841386466
s(I2
I7
I1
tp59
F-0.26225279449699057
s(I20
I6
I1
tp60
F-0.53315649867374
s(I13
I1
I1
tp61
F0.06451612903225803
s(I8
I9
I1
tp62
F-0.16667512249040956
s(I16
I7
I0
tp63
F0.014492753623188408
s(I9
I8
I0
tp64
F-0.11944808190154736
s(I13
I4
I1
tp65
F0.06995884773662552
s(I21
I6
I0
tp66
F0.9360708138677167
s(I1
I7
I1
tp67
F-0.34357541899441374
s(I7
I4
I0
tp68
F0.15145074315628776
s(I19
I10
I1
tp69
F-0.5038503850385033
s(I20
I9
I0
tp70
F0.7958755928719189
s(I11
I5
I0
tp71
F0.08766233766233768
s(I1
I2
I1
tp72
F-0.12705667276051202
s(I19
I3
I1
tp73
F-0.49425287356321834
s(I12
I2
I1
tp74
F0.1460674157303371
s(I2
I5
I0
tp75
F0.10865419159805699
s(I12
I7
I1
tp76
F-0.021857923497267756
s(I20
I5
I0
tp77
F0.7481481481481483
s(I13
I2
I0
tp78
F0.2469635627530365
s(I18
I10
I0
tp79
F0.16911432464506138
s(I6
I3
I0
tp80
F0.20039255959598246
s(I11
I9
I0
tp81
F-0.18059855521155824
s(I10
I10
I0
tp82
F-0.2641990109396084
s(I3
I9
I0
tp83
F-0.21012350039976335
s(I11
I7
I1
tp84
F0.0748663101604279
s(I18
I1
I1
tp85
F-0.4905660377358489
s(I21
I9
I0
tp86
F0.9355044663792792
s(I11
I2
I1
tp87
F0.09883720930232562
s(I14
I8
I0
tp88
F-0.12331838565022403
s(I4
I3
I1
tp89
F-0.06690777576853534
s(I12
I1
I0
tp90
F0.27134724857684994
s(I15
I9
I1
tp91
F-0.14567220549261042
s(I10
I6
I0
tp92
F0.09298245614035079
s(I18
I8
I1
tp93
F-0.37566137566137564
s(I10
I8
I1
tp94
F0.04768786362872646
s(I21
I5
I0
tp95
F0.8627450980392156
s(I7
I7
I0
tp96
F-0.027235172857711362
s(I15
I5
I1
tp97
F-0.08000000000000002
s(I17
I4
I1
tp98
F-0.38333333333333325
s(I20
I10
I0
tp99
F0.739625232112935
s(I3
I6
I1
tp100
F-0.24711111111111136
s(I11
I4
I0
tp101
F0.2199036918138041
s(I9
I3
I0
tp102
F0.1991410769214936
s(I2
I2
I0
tp103
F0.2556170847457646
s(I10
I4
I1
tp104
F0.05570530098831992
s(I21
I10
I1
tp105
F-0.6425178147268406
s(I17
I8
I1
tp106
F-0.288311688311688
s(I20
I6
I0
tp107
F0.7770719117939019
s(I13
I1
I0
tp108
F0.313953488372093
s(I21
I3
I1
tp109
F-0.6507936507936507
s(I11
I8
I0
tp110
F-0.125429553264605
s(I14
I2
I1
tp111
F-0.024539877300613522
s(I7
I1
I1
tp112
F0.06733393994540489
s(I16
I7
I1
tp113
F-0.4057971014492753
s(I9
I8
I1
tp114
F-0.12115967113803541
s(I21
I6
I1
tp115
F-0.6544276457883367
s(I3
I8
I0
tp116
F-0.11995531262888262
s(I1
I7
I0
tp117
F-0.02637958294186036
s(I7
I4
I1
tp118
F-0.04757929883138563
s(I9
I1
I1
tp119
F0.1899999999999999
s(I20
I9
I1
tp120
F-0.5383747178329572
s(I21
I8
I0
tp121
F0.9337557454101664
s(I14
I9
I0
tp122
F-0.20030007501875513
s(I19
I3
I0
tp123
F0.6473429951690819
s(I12
I2
I0
tp124
F0.2970873786407767
s(I2
I5
I1
tp125
F-0.2198088618592528
s(I10
I7
I0
tp126
F-0.0265520346175617
s(I6
I6
I1
tp127
F-0.13978494623655924
s(I20
I5
I1
tp128
F-0.6231884057971013
s(I13
I2
I1
tp129
F0.07185628742514971
s(I21
I4
I0
tp130
F0.9857142857142858
s(I6
I3
I1
tp131
F-0.04027420736932305
s(I8
I2
I1
tp132
F0.11800699300699294
s(I1
I5
I1
tp133
F-0.34778510838831306
s(I7
I6
I0
tp134
F0.06974948474861287
s(I6
I10
I1
tp135
F-0.3937777777777781
s(I11
I7
I0
tp136
F-0.13994910941475824
s(I19
I5
I1
tp137
F-0.1758241758241758
s(I9
I2
I0
tp138
F0.2559275088942674
s(I2
I3
I0
tp139
F0.20109333774428392
s(I1
I9
I1
tp140
F-0.4656820156385752
s(I12
I1
I1
tp141
F0.16145833333333345
s(I15
I9
I0
tp142
F-0.2151133501259449
s(I20
I7
I0
tp143
F0.6899999999999997
s(I18
I8
I0
tp144
F0.37886787326405114
s(I6
I1
I0
tp145
F0.31617295170260123
s(I12
I8
I1
tp146
F0.07207659153536407
s(I5
I7
I1
tp147
F-0.2612456747404843
s(I10
I8
I0
tp148
F-0.1092774308652987
s(I8
I1
I0
tp149
F0.3164950036930059
s(I1
I6
I0
tp150
F0.0680442600247664
s(I4
I8
I1
tp151
F-0.2696728558797524
s(I15
I5
I0
tp152
F0.09601873536299763
s(I11
I4
I1
tp153
F0.13612565445026184
s(I19
I2
I0
tp154
F0.7450980392156864
s(I12
I3
I0
tp155
F0.13595166163141986
s(I10
I4
I0
tp156
F0.15055673940119824
s(I18
I6
I1
tp157
F-0.35054021608643443
s(I1
I10
I0
tp158
F-0.296749323222627
s(I4
I4
I1
tp159
F-0.1462979482604816
s(I21
I3
I0
tp160
F0.9651162790697675
s(I11
I8
I1
tp161
F0.1364979318495181
s(I14
I2
I0
tp162
F0.2105263157894737
s(I7
I1
I0
tp163
F0.31624431254840435
s(I15
I7
I1
tp164
F-0.21739130434782608
s(I3
I8
I1
tp165
F-0.31385108086469143
s(I11
I6
I0
tp166
F0.09368191721132912
s(I9
I1
I0
tp167
F0.3175870692019347
s(I17
I3
I1
tp168
F-0.2971014492753623
s(I10
I2
I1
tp169
F0.15775401069518719
s(I3
I1
I1
tp170
F-0.07711864406779664
s(I21
I8
I1
tp171
F-0.6567398119122257
s(I14
I9
I1
tp172
F-0.09242747755068406
s(I15
I8
I0
tp173
F-0.1220964712859538
s(I10
I7
I1
tp174
F-0.03700277520814069
s(I18
I9
I0
tp175
F0.27060925082079834
s(I21
I1
I1
tp176
F-0.6470588235294118
s(I6
I6
I0
tp177
F0.06932164133009301
s(I11
I10
I0
tp178
F-0.2693965517241375
s(I7
I3
I1
tp179
F-0.009717314487632482
s(I10
I9
I0
tp180
F-0.21674876847290608
s(I21
I4
I1
tp181
F-0.6842105263157895
s(I3
I10
I0
tp182
F-0.2966134873721333
s(I8
I2
I0
tp183
F0.2563416621917431
s(I1
I5
I0
tp184
F0.10720077458963678
s(I7
I6
I1
tp185
F-0.0868778280542987
s(I9
I7
I1
tp186
F-0.08912655971479497
s(I15
I4
I0
tp187
F0.07598784194528882
s(I6
I10
I0
tp188
F-0.29565408603492993
s(I19
I5
I0
tp189
F0.7107843137254898
s(I9
I2
I1
tp190
F0.14223002633889364
s(I2
I3
I1
tp191
F-0.16739319965126442
s(I20
I2
I1
tp192
F-0.5362318840579711
s(I10
I5
I0
tp193
F0.1079606527032399
s(I6
I4
I1
tp194
F-0.09751609935602587
s(I1
I9
I0
tp195
F-0.20825684839053923
s(I2
I10
I1
tp196
F-0.46186803770351287
s(I20
I7
I1
tp197
F-0.6181818181818183
s(I21
I2
I0
tp198
F0.9272727272727271
s(I6
I1
I1
tp199
F0.05000000000000005
s(I8
I4
I1
tp200
F0.02841918294849026
s(I14
I3
I0
tp201
F0.18954248366013066
s(I12
I8
I0
tp202
F-0.10955710955710973
s(I5
I7
I0
tp203
F-0.02494580006801882
s(I13
I9
I1
tp204
F-0.035809276553619575
s(I6
I8
I1
tp205
F-0.20564149226569634
s(I8
I1
I1
tp206
F0.17418772563176926
s(I1
I6
I1
tp207
F-0.28747795414462135
s(I19
I7
I1
tp208
F-0.6506024096385541
s(I4
I8
I0
tp209
F-0.11839042546217822
s(I2
I1
I0
tp210
F0.3153438935017082
s(I5
I9
I1
tp211
F-0.29066666666666685
s(I19
I2
I1
tp212
F-0.3448275862068966
s(I12
I3
I1
tp213
F0.1576673866090711
s(I20
I1
I0
tp214
F0.8526315789473686
s(I18
I6
I0
tp215
F0.4027954547186675
s(I6
I7
I0
tp216
F-0.026903612197605675
s(I1
I10
I1
tp217
F-0.5107142857142855
s(I4
I4
I0
tp218
F0.1510369709776262
s(I12
I10
I1
tp219
F-0.046604175948716534
s(I5
I5
I1
tp220
F-0.11131386861313868
s(I8
I3
I0
tp221
F0.20116167869072718
s(I1
I4
I0
tp222
F0.15192557259362496
s(I4
I10
I1
tp223
F-0.43618881118881125
s(I15
I7
I0
tp224
F-0.045751633986928074
s(I13
I10
I0
tp225
F-0.30458221024258736
s(I11
I6
I1
tp226
F0.23524039885477352
s(I19
I4
I0
tp227
F0.5833333333333336
s(I17
I3
I0
tp228
F0.21379310344827573
s(I5
I10
I0
tp229
F-0.2968161109177144
s(I10
I2
I0
tp230
F0.25678755487479926
s(I18
I4
I1
tp231
F-0.348314606741573
s(I3
I1
I0
tp232
F0.3155567332293816
s(I1
I8
I0
tp233
F-0.11999802890899108
s(I4
I6
I1
tp234
F-0.19328493647912878
s(I15
I8
I1
tp235
F-0.19707057256990676
s(I18
I9
I1
tp236
F-0.32101372756071805
s(I21
I1
I0
tp237
F0.9682539682539681
s(I11
I10
I1
tp238
F0.006237538845386891
s(I7
I3
I0
tp239
F0.20056061713463966
s(I12
I9
I0
tp240
F-0.22200392927308446
s(I15
I1
I1
tp241
F-2.42861286636753e-17
s(I5
I6
I0
tp242
F0.07022013791077635
s(I10
I9
I1
tp243
F-0.010356728683116496
s(I3
I10
I1
tp244
F-0.45921173235563706
s(I4
I9
I0
tp245
F-0.20905926787872095
s(I9
I7
I0
tp246
F-0.02632443705528204
s(I15
I4
I1
tp247
F-0.19117647058823523
s(I17
I1
I1
tp248
F-0.15966386554621848
s(I3
I3
I1
tp249
F-0.1757950530035335
s(I15
I10
I0
tp250
F-0.2953778429933969
s(I20
I2
I0
tp251
F0.797872340425532
s(I10
I5
I1
tp252
F0.08171428571428566
s(I18
I7
I0
tp253
F0.46835443037974683
s(I6
I4
I0
tp254
F0.15074161112191461
s(I14
I6
I1
tp255
F-0.02941176470588238
s(I4
I5
I0
tp256
F0.10835483995223316
s(I2
I10
I0
tp257
F-0.2970834788683275
s(I21
I2
I1
tp258
F-0.4705882352941176
s(I8
I4
I0
tp259
F0.15184045338163998
s(I14
I3
I1
tp260
F-0.06493506493506493
s(I16
I2
I1
tp261
F-0.17241379310344834
s(I9
I5
I1
tp262
F0.036874451273046505
s(I15
I6
I0
tp263
F0.06943852384142338
s(I13
I9
I0
tp264
F-0.21980198019801983
s(I6
I8
I0
tp265
F-0.11960737338971375
s(I7
I9
I1
tp266
F-0.2719141323792485
s(I19
I7
I0
tp267
F0.6235294117647059
s(I17
I2
I0
tp268
F0.38961038961038963
s(I2
I1
I1
tp269
F-0.09933774834437085
s(I5
I9
I0
tp270
F-0.20910950072317896
s(I10
I3
I0
tp271
F0.2007574894325882
s(I2
I8
I1
tp272
F-0.40659340659340654
s(I20
I1
I1
tp273
F-0.46875
s(I6
I7
I1
tp274
F-0.1888372093023256
s(I8
I6
I1
tp275
F-0.04235090751944677
s(I14
I1
I0
tp276
F0.32075471698113206
s(I7
I2
I0
tp277
F0.25565429621294905
s(I12
I10
I0
tp278
F-0.27832898172323733
s(I5
I5
I0
tp279
F0.10778778770079243
s(I13
I7
I1
tp280
F-0.14634146341463417
s(I8
I3
I1
tp281
F0.0745762711864407
s(I16
I1
I0
tp282
F0.4173669467787116
s(I1
I4
I1
tp283
F-0.2618213660245187
s(I19
I9
I1
tp284
F-0.4032258064516123
s(I4
I10
I0
tp285
F-0.29659480834632473
s(I9
I6
I0
tp286
F0.06869397100507417
s(I13
I10
I1
tp287
F-0.09811960503732844
s(I19
I4
I1
tp288
F-0.26666666666666666
s(I20
I3
I0
tp289
F0.7731092436974795
s(I5
I10
I1
tp290
F-0.4047202797202797
s(I18
I4
I0
tp291
F0.4534412955465588
s(I6
I5
I0
tp292
F0.10906423808077957
s(I1
I8
I1
tp293
F-0.4135625596943647
s(I4
I6
I0
tp294
F0.06845269751612928
s(I12
I4
I1
tp295
F0.06217616580310879
s(I5
I3
I1
tp296
F-0.08420138888888885
s(I8
I5
I0
tp297
F0.10769663601786189
s(I12
I9
I1
tp298
F0.020156108704963697
s(I15
I1
I0
tp299
F0.22549019607843124
s(I5
I6
I1
tp300
F-0.15201465201465178
s(I13
I8
I0
tp301
F-0.1339915373765872
s(I6
I9
I0
tp302
F-0.2082245388215781
s(I19
I6
I0
tp303
F0.6001537314114435
s(I4
I9
I1
tp304
F-0.3639371381306862
s(I17
I1
I0
tp305
F0.384083044982699
s(I5
I8
I0
tp306
F-0.12158091261035324
s(I18
I2
I1
tp307
F-0.4086021505376345
s(I3
I3
I0
tp308
F0.20096263548588836
s(I11
I1
I1
tp309
F0.31442080378250614
s(I15
I10
I1
tp310
F-0.19523655445042915
s(I18
I7
I1
tp311
F-0.40366972477064217
s(I14
I6
I0
tp312
F0.07220425843450562
s(I4
I5
I1
tp313
F-0.14492753623188423
s(I15
I3
I1
tp314
F0.023364485981308403
s(I5
I4
I0
tp315
F0.15151350814903417
s(I16
I2
I0
tp316
F0.28846153846153844
s(I9
I5
I0
tp317
F0.10748862369670377
s(I15
I6
I1
tp318
F-0.1122931442080377
s(I17
I7
I1
tp319
F-0.40909090909090895
s(I3
I5
I1
tp320
F-0.22282608695652154
s(I7
I9
I0
tp321
F-0.21083724589711453
s(I17
I2
I1
tp322
F-0.27927927927927926
s(I10
I3
I1
tp323
F0.16423043852106628
s(I18
I5
I0
tp324
F0.39565217391304364
s(I14
I4
I1
tp325
F-0.10884353741496598
s(I4
I7
I0
tp326
F-0.02647794878918532
s(I2
I8
I0
tp327
F-0.11928532849802512
s(I8
I6
I0
tp328
F0.06937579336203316
s(I14
I1
I1
tp329
F0.0779220779220779
s(I16
I4
I1
tp330
F-0.1287878787878788
s(I7
I2
I1
tp331
F0.04170286707211124
s(I13
I7
I0
tp332
F0.04242424242424247
s(I16
I1
I1
tp333
F-0.08593750000000006
s(I19
I9
I0
tp334
F0.5738381752102311
s(I9
I6
I1
tp335
F0.05892399658411617
s(I10
I1
I0
tp336
F0.31607112125479225
s(I3
I2
I0
tp337
F0.25518130571343217
s(I16
I8
I1
tp338
F-0.2369337979094077
s(I2
I6
I1
tp339
F-0.21158911325724294
s(I20
I3
I1
tp340
F-0.5977011494252874
s(I6
I5
I1
tp341
F-0.09469696969696981
s(I8
I8
I1
tp342
F-0.1517412935323384
s(I14
I7
I0
tp343
F-0.05777777777777783
s(I12
I4
I0
tp344
F0.13152400835073066
s(I5
I3
I0
tp345
F0.20100104587692882
s(I13
I5
I1
tp346
F0.012499999999999995
s(I8
I5
I1
tp347
F-0.03016453382084083
s(I16
I3
I0
tp348
F0.2319201995012469
s(I9
I4
I0
tp349
F0.1512614066832424
s(I13
I8
I1
tp350
F0.013687361311774449
s(I6
I9
I1
tp351
F-0.31137184115523436
s(I1
I3
I1
tp352
F-0.19056603773584904
s(I7
I8
I0
tp353
F-0.119929707260893
s(I19
I6
I1
tp354
F-0.41931385006353233
s(I5
I8
I1
tp355
F-0.23711340206185524
s(I18
I2
I0
tp356
F0.42408376963350763
s(I11
I1
I0
tp357
F0.22713864306784648
s(I12
I6
I1
tp358
F0.06004901960784316
s(I2
I9
I0
tp359
F-0.2096679593127473
s(I5
I1
I1
tp360
F0.026431718061674016
s(I8
I7
I0
tp361
F-0.02569842338898177
s(I15
I3
I0
tp362
F0.1506024096385542
s(I5
I4
I1
tp363
F-0.14143245693563025
s(I13
I6
I0
tp364
F0.06756293820750632
s(I19
I8
I0
tp365
F0.6249208583564313
s(I17
I7
I0
tp366
F0.07042253521126764
s(I3
I5
I0
tp367
F0.10661243495914842
s(I11
I3
I1
tp368
F0.24471830985915508
s(I4
I2
I1
tp369
F-0.06580166821130679
s(I18
I5
I1
tp370
F-0.3389830508474576
s(I14
I4
I0
tp371
F0.16597510373443983
s(I4
I7
I1
tp372
F-0.2233183856502242
s(I12
I5
I0
tp373
F0.09150326797385618
s(I5
I2
I0
tp374
F0.2566509653562692
s(I16
I4
I0
tp375
F0.17824773413897282
s(I17
I5
I1
tp376
F-0.30252100840336127
s(I3
I7
I1
tp377
F-0.27757352941176444
s(I10
I1
I1
tp378
F0.23674588665447893
s(I18
I3
I0
tp379
F0.5714285714285711
s(I3
I2
I1
tp380
F-0.1200000000000001
s(I16
I8
I0
tp381
F-0.11888741558481383
s(I14
I10
I1
tp382
F-0.1493433069496432
s(I4
I1
I0
tp383
F0.315947978313083
s(I17
I9
I1
tp384
F-0.3082627118644069
s(I2
I6
I0
tp385
F0.06906825483732201
s(I8
I8
I0
tp386
F-0.11998621164399845
s(I14
I7
I1
tp387
F-0.19863013698630136
s(I16
I6
I1
tp388
F-0.20300751879699255
s(I9
I9
I1
tp389
F-0.09382505064789577
s(I15
I2
I0
tp390
F0.30823529411764683
s(I13
I5
I0
tp391
F0.10472279260780293
s(I21
I7
I1
tp392
F-0.6578947368421051
s(I7
I5
I1
tp393
F-0.05311355311355315
s(I16
I3
I1
tp394
F-0.19008264462809904
s(I9
I4
I1
tp395
F0.06271777003484316
s(I17
I6
I0
tp396
F0.185181527428534
s(I20
I8
I1
tp397
F-0.49819927971188505
s(I3
I4
I0
tp398
F0.15150151558441785
s(I16
I10
I1
tp399
F-0.24099436381952902
s(I1
I3
I0
tp400
F0.2022769590661168
s(I7
I8
I1
tp401
F-0.20557491289198576
s(I2
I4
I1
tp402
F-0.19856244384546246
s(I8
I10
I1
tp403
F-0.23657318239485864
s(I14
I5
I0
tp404
F0.040963855421686755
s(I12
I6
I0
tp405
F0.073188992619982
s(I17
I10
I0
tp406
F-0.13850568854804526
s(I2
I9
I1
tp407
F-0.3759791122715408
s(I20
I4
I1
tp408
F-0.7543859649122806
s(I5
I1
I0
tp409
F0.31581611422848616
s(I13
I3
I1
tp410
F0.05844155844155845
s(I6
I2
I1
tp411
F-0.028597785977859766
s(I8
I7
I1
tp412
F-0.11170212765957424
s(I16
I5
I0
tp413
F0.11445783132530128
s(I9
I10
I0
tp414
F-0.29466939917240803
s(I13
I6
I1
tp415
F0.04271356783919598
s(I1
I1
I1
tp416
F-0.17943925233644892
s(I7
I10
I0
tp417
F-0.2979328664324045
s(I19
I8
I1
tp418
F-0.41656516443361763
s(I11
I3
I0
tp419
F0.11206896551724133
s(I16
I9
I0
tp420
F-0.2088026069563947
s(I19
I1
I1
tp421
F-0.3699999999999999
s(I4
I2
I0
tp422
F0.2555427449086686
s(I2
I7
I0
tp423
F-0.026065952542401113
s.