ccollections
defaultdict
p0
(c__builtin__
float
p1
tp2
Rp3
(I8
I9
I0
tp4
F-0.20461122785949828
s(I12
I5
I1
tp5
F-0.06600550964187338
s(I5
I2
I1
tp6
F-0.20173076253380687
s(I13
I4
I0
tp7
F0.1548745156899033
s(I19
I10
I0
tp8
F0.4627225775644381
s(I17
I5
I0
tp9
F0.2189199866289834
s(I3
I7
I0
tp10
F-0.025162786308424383
s(I11
I5
I1
tp11
F0.0
s(I1
I2
I0
tp12
F0.25470932594749607
s(I18
I3
I1
tp13
F-0.46337667093938406
s(I14
I10
I0
tp14
F-0.2968386478719002
s(I4
I1
I1
tp15
F-0.23276263143202597
s(I12
I7
I0
tp16
F-0.024914686074955665
s(I17
I9
I0
tp17
F-0.045917463499786086
s(I18
I10
I1
tp18
F-0.4666662149893622
s(I11
I9
I1
tp19
F0.0
s(I16
I6
I0
tp20
F0.07332767096491889
s(I9
I9
I0
tp21
F-0.21168506289494549
s(I15
I2
I1
tp22
F-0.2685785254600882
s(I10
I10
I1
tp23
F-0.03342695730959701
s(I21
I7
I0
tp24
F0.931832694763729
s(I3
I9
I1
tp25
F-0.2656878306878297
s(I7
I5
I0
tp26
F0.10560948838410301
s(I17
I6
I1
tp27
F-0.40110900730321963
s(I20
I8
I0
tp28
F0.789830098554931
s(I18
I1
I0
tp29
F0.5686480011977849
s(I3
I4
I1
tp30
F-0.26612239657798353
s(I21
I9
I1
tp31
F-0.6636568030171152
s(I11
I2
I0
tp32
F0.2554978466469236
s(I16
I10
I0
tp33
F-0.29779016493191923
s(I14
I8
I1
tp34
F-0.1998784529337471
s(I4
I3
I0
tp35
F0.20129516438408795
s(I2
I4
I0
tp36
F0.15166389426704313
s(I10
I6
I1
tp37
F-0.03293927162698401
s(I8
I10
I0
tp38
F-0.2939402124977501
s(I14
I5
I1
tp39
F-0.20045040391727414
s(I17
I10
I1
tp40
F-0.3997574132592779
s(I20
I4
I0
tp41
F0.7986886072757056
s(I13
I3
I0
tp42
F0.19957599874885068
s(I21
I5
I1
tp43
F-0.6697321996645265
s(I6
I2
I0
tp44
F0.2557738661399972
s(I7
I7
I1
tp45
F-0.1345588405528654
s(I16
I5
I1
tp46
F-0.33209390492854823
s(I9
I10
I1
tp47
F-0.06660161283571941
s(I17
I4
I0
tp48
F0.2575133673406673
s(I20
I10
I1
tp49
F-0.6007160610250304
s(I3
I6
I0
tp50
F0.07090135830368956
s(I1
I1
I0
tp51
F0.31835392393332185
s(I7
I10
I1
tp52
F-0.13333950261083918
s(I9
I3
I1
tp53
F-0.06637343682621852
s(I2
I2
I1
tp54
F-0.29892898760342784
s(I21
I10
I0
tp55
F0.9378530235318192
s(I16
I9
I1
tp56
F-0.33285198555956663
s(I19
I1
I0
tp57
F0.715599374318624
s(I17
I8
I0
tp58
F0.0491261539017935
s(I2
I7
I1
tp59
F-0.30021458975832477
s(I20
I6
I1
tp60
F-0.5994614315496914
s(I13
I1
I1
tp61
F-0.13529753828261312
s(I8
I9
I1
tp62
F-0.10003836147670882
s(I16
I7
I0
tp63
F-0.030860432777926817
s(I9
I8
I0
tp64
F-0.11360441572845348
s(I13
I4
I1
tp65
F-0.1336372592578291
s(I21
I6
I0
tp66
F0.9269172361427461
s(I1
I7
I1
tp67
F-0.33298063263981664
s(I7
I4
I0
tp68
F0.15182851095095143
s(I19
I10
I1
tp69
F-0.5337131177839145
s(I20
I9
I0
tp70
F0.7969525382054302
s(I11
I5
I0
tp71
F0.10352488784447796
s(I1
I2
I1
tp72
F-0.3335367857645989
s(I19
I3
I1
tp73
F-0.5330244585712774
s(I12
I2
I1
tp74
F-0.06581436784776176
s(I2
I5
I0
tp75
F0.10698151671032953
s(I12
I7
I1
tp76
F-0.0667647006079299
s(I20
I5
I0
tp77
F0.7904630615953372
s(I13
I2
I0
tp78
F0.24989549951233084
s(I18
I10
I0
tp79
F0.1677738025587532
s(I6
I3
I0
tp80
F0.19919329544731176
s(I11
I9
I0
tp81
F-0.20434969510739123
s(I10
I10
I0
tp82
F-0.29763737955915365
s(I3
I9
I0
tp83
F-0.20783873877007827
s(I11
I7
I1
tp84
F0.0
s(I18
I1
I1
tp85
F-0.46573869223205444
s(I21
I9
I0
tp86
F0.9355734575600709
s(I11
I2
I1
tp87
F0.0
s(I14
I8
I0
tp88
F-0.1188942676419877
s(I4
I3
I1
tp89
F-0.23438035541045138
s(I12
I1
I0
tp90
F0.3111372364605365
s(I15
I9
I1
tp91
F-0.26587301587300954
s(I10
I6
I0
tp92
F0.06792651256626361
s(I18
I8
I1
tp93
F-0.46885602392050646
s(I10
I8
I1
tp94
F-0.03328211158847315
s(I21
I5
I0
tp95
F0.9322955738934693
s(I7
I7
I0
tp96
F-0.0263515171342117
s(I15
I5
I1
tp97
F-0.2638331102186516
s(I17
I4
I1
tp98
F-0.4004981185197207
s(I20
I10
I0
tp99
F0.7411943886059019
s(I3
I6
I1
tp100
F-0.2673565006814517
s(I11
I4
I0
tp101
F0.15171637431067186
s(I9
I3
I0
tp102
F0.20208872114259557
s(I2
I2
I0
tp103
F0.25636761986057277
s(I10
I4
I1
tp104
F-0.033874608940788295
s(I21
I10
I1
tp105
F-0.6663459159266588
s(I17
I8
I1
tp106
F-0.39914265301261637
s(I20
I6
I0
tp107
F0.7740202275600502
s(I13
I1
I0
tp108
F0.31763438244034503
s(I21
I3
I1
tp109
F-0.6644998828765568
s(I11
I8
I0
tp110
F-0.1294997251236935
s(I14
I2
I1
tp111
F-0.19935351526076836
s(I7
I1
I1
tp112
F-0.1337534690101795
s(I16
I7
I1
tp113
F-0.33051585713276777
s(I9
I8
I1
tp114
F-0.0666881457250169
s(I21
I6
I1
tp115
F-0.6647130505425642
s(I3
I8
I0
tp116
F-0.11812429190637114
s(I1
I7
I0
tp117
F-0.02650181725114591
s(I7
I4
I1
tp118
F-0.1319606357067208
s(I9
I1
I1
tp119
F-0.06690527842194047
s(I20
I9
I1
tp120
F-0.6012060102807386
s(I21
I8
I0
tp121
F0.9320168827253581
s(I14
I9
I0
tp122
F-0.20421353551674987
s(I19
I3
I0
tp123
F0.6727090588179159
s(I12
I2
I0
tp124
F0.26012541845442866
s(I2
I5
I1
tp125
F-0.3017754251182845
s(I10
I7
I0
tp126
F-0.025841734626169843
s(I6
I6
I1
tp127
F-0.1663639037386905
s(I20
I5
I1
tp128
F-0.5998675789009079
s(I13
I2
I1
tp129
F-0.13301519283209998
s(I21
I4
I0
tp130
F0.9385391369325641
s(I6
I3
I1
tp131
F-0.16534528190186415
s(I8
I2
I1
tp132
F-0.10008800842119747
s(I1
I5
I1
tp133
F-0.3343455601737573
s(I7
I6
I0
tp134
F0.06972175543410127
s(I6
I10
I1
tp135
F-0.1664828757457594
s(I11
I7
I0
tp136
F-0.032456877576339714
s(I19
I5
I1
tp137
F-0.5332442968524382
s(I9
I2
I0
tp138
F0.2557269550732525
s(I2
I3
I0
tp139
F0.19889693131097164
s(I1
I9
I1
tp140
F-0.3350455943452169
s(I12
I1
I1
tp141
F-0.06528633061691073
s(I15
I9
I0
tp142
F-0.20811220187167132
s(I20
I7
I0
tp143
F0.7787670460948904
s(I18
I8
I0
tp144
F0.37548781626365135
s(I6
I1
I0
tp145
F0.31624725059674463
s(I12
I8
I1
tp146
F-0.06656854086939805
s(I5
I7
I1
tp147
F-0.20040159015814862
s(I10
I8
I0
tp148
F-0.11902702152562208
s(I8
I1
I0
tp149
F0.3171937458281671
s(I1
I6
I0
tp150
F0.06956426202416552
s(I4
I8
I1
tp151
F-0.2345377840940899
s(I15
I5
I0
tp152
F0.09766020093951605
s(I11
I4
I1
tp153
F0.0
s(I19
I2
I0
tp154
F0.6844365961914753
s(I12
I3
I0
tp155
F0.1965803877032773
s(I10
I4
I0
tp156
F0.14905886927211187
s(I18
I6
I1
tp157
F-0.4631578947368402
s(I1
I10
I0
tp158
F-0.2983047029358128
s(I4
I4
I1
tp159
F-0.23415896445086465
s(I21
I3
I0
tp160
F0.9427535540501866
s(I11
I8
I1
tp161
F0.0
s(I14
I2
I0
tp162
F0.2583307136120727
s(I7
I1
I0
tp163
F0.31656191363451636
s(I15
I7
I1
tp164
F-0.26622317876475526
s(I3
I8
I1
tp165
F-0.26963933984658095
s(I11
I6
I0
tp166
F0.07158544462786164
s(I9
I1
I0
tp167
F0.3166861711347519
s(I17
I3
I1
tp168
F-0.4016117295097432
s(I10
I2
I1
tp169
F-0.03351438873705237
s(I3
I1
I1
tp170
F-0.26578210903311456
s(I21
I8
I1
tp171
F-0.6673882620484544
s(I14
I9
I1
tp172
F-0.20067301915858982
s(I15
I8
I0
tp173
F-0.11996244371892452
s(I10
I7
I1
tp174
F-0.03297282736406509
s(I18
I9
I0
tp175
F0.2715444029482407
s(I21
I1
I1
tp176
F-0.6677335229966799
s(I6
I6
I0
tp177
F0.06914374931823482
s(I11
I10
I0
tp178
F-0.2928515487860901
s(I7
I3
I1
tp179
F-0.1335450539082052
s(I10
I9
I0
tp180
F-0.20692577508886614
s(I21
I4
I1
tp181
F-0.6633646057922037
s(I3
I10
I0
tp182
F-0.30241562158067514
s(I8
I2
I0
tp183
F0.2548703468101977
s(I1
I5
I0
tp184
F0.10630966367413373
s(I7
I6
I1
tp185
F-0.13312482294924566
s(I9
I7
I1
tp186
F-0.06536589286124388
s(I15
I4
I0
tp187
F0.1616431048279528
s(I6
I10
I0
tp188
F-0.29253572584748255
s(I19
I5
I0
tp189
F0.6249402999331368
s(I9
I2
I1
tp190
F-0.06745835300076986
s(I2
I3
I1
tp191
F-0.29960110894054437
s(I20
I2
I1
tp192
F-0.5970518139288568
s(I10
I5
I0
tp193
F0.10790010253751098
s(I6
I4
I1
tp194
F-0.16582670331259752
s(I1
I9
I0
tp195
F-0.20858879939884611
s(I2
I10
I1
tp196
F-0.3010944325799791
s(I20
I7
I1
tp197
F-0.5980270281108406
s(I21
I2
I0
tp198
F0.9471934656662553
s(I6
I1
I1
tp199
F-0.16705292286405946
s(I8
I4
I1
tp200
F-0.09903264812575618
s(I14
I3
I0
tp201
F0.20505811323723128
s(I12
I8
I0
tp202
F-0.11851588219592511
s(I5
I7
I0
tp203
F-0.025962109593169573
s(I13
I9
I1
tp204
F-0.13291285077236545
s(I6
I8
I1
tp205
F-0.16692685040638902
s(I8
I1
I1
tp206
F-0.10023851260093775
s(I1
I6
I1
tp207
F-0.33370495112248216
s(I19
I7
I1
tp208
F-0.5329588521927455
s(I4
I8
I0
tp209
F-0.11850129835065641
s(I2
I1
I0
tp210
F0.31645442991640094
s(I5
I9
I1
tp211
F-0.20068216967769534
s(I19
I2
I1
tp212
F-0.537287954763686
s(I12
I3
I1
tp213
F-0.06818892711917335
s(I20
I1
I0
tp214
F0.8555949816246357
s(I18
I6
I0
tp215
F0.39631112275056823
s(I6
I7
I0
tp216
F-0.02614304369045143
s(I1
I10
I1
tp217
F-0.3321106359067254
s(I4
I4
I0
tp218
F0.15077520809511408
s(I12
I10
I1
tp219
F-0.06664936510136668
s(I5
I5
I1
tp220
F-0.20156611352294776
s(I8
I3
I0
tp221
F0.19993499739989826
s(I1
I4
I0
tp222
F0.15320695596966113
s(I4
I10
I1
tp223
F-0.23367735401874892
s(I15
I7
I0
tp224
F-0.02533361575937302
s(I13
I10
I0
tp225
F-0.2964790610829524
s(I11
I6
I1
tp226
F0.0
s(I19
I4
I0
tp227
F0.6413500095474499
s(I17
I3
I0
tp228
F0.29058916808977636
s(I5
I10
I0
tp229
F-0.29994321671514135
s(I10
I2
I0
tp230
F0.25731992596527214
s(I18
I4
I1
tp231
F-0.4642439174622727
s(I3
I1
I0
tp232
F0.31729355570862844
s(I1
I8
I0
tp233
F-0.1196303450985509
s(I4
I6
I1
tp234
F-0.23235420764136733
s(I15
I8
I1
tp235
F-0.26671819894681453
s(I18
I9
I1
tp236
F-0.46551425966103793
s(I21
I1
I0
tp237
F0.9532701683377782
s(I11
I10
I1
tp238
F0.0
s(I7
I3
I0
tp239
F0.20202481016037122
s(I12
I9
I0
tp240
F-0.21342712418819496
s(I15
I1
I1
tp241
F-0.26693539357294943
s(I5
I6
I0
tp242
F0.07012225568281139
s(I10
I9
I1
tp243
F-0.03378393815427382
s(I3
I10
I1
tp244
F-0.2671446460236059
s(I4
I9
I0
tp245
F-0.2089812847146379
s(I9
I7
I0
tp246
F-0.026137214981075733
s(I15
I4
I1
tp247
F-0.2634562160965366
s(I17
I1
I1
tp248
F-0.39386023966608363
s(I3
I3
I1
tp249
F-0.26710995123482123
s(I15
I10
I0
tp250
F-0.2944498811687409
s(I20
I2
I0
tp251
F0.8310832633550793
s(I10
I5
I1
tp252
F-0.03332281114586538
s(I18
I7
I0
tp253
F0.4209081749643885
s(I6
I4
I0
tp254
F0.1503579479194421
s(I14
I6
I1
tp255
F-0.20196849574463688
s(I4
I5
I0
tp256
F0.10636069916675771
s(I2
I10
I0
tp257
F-0.2982331855299392
s(I21
I2
I1
tp258
F-0.6729734421107453
s(I8
I4
I0
tp259
F0.15016585988339617
s(I14
I3
I1
tp260
F-0.19862786552252967
s(I16
I2
I1
tp261
F-0.3348342806525447
s(I9
I5
I1
tp262
F-0.0661100669294946
s(I15
I6
I0
tp263
F0.055940781699404925
s(I13
I9
I0
tp264
F-0.20961559695253518
s(I6
I8
I0
tp265
F-0.11963500456927639
s(I7
I9
I1
tp266
F-0.13311718361349079
s(I19
I7
I0
tp267
F0.6073022138321573
s(I17
I2
I0
tp268
F0.34403231276785806
s(I2
I1
I1
tp269
F-0.29971438563767555
s(I5
I9
I0
tp270
F-0.21025464132162186
s(I10
I3
I0
tp271
F0.1990769979702057
s(I2
I8
I1
tp272
F-0.30083338484622363
s(I20
I1
I1
tp273
F-0.5995036788715233
s(I6
I7
I1
tp274
F-0.16886814333758537
s(I8
I6
I1
tp275
F-0.1008496788501965
s(I14
I1
I0
tp276
F0.3082465345759264
s(I7
I2
I0
tp277
F0.25518065785748656
s(I12
I10
I0
tp278
F-0.29799764428739656
s(I5
I5
I0
tp279
F0.10765552096515023
s(I13
I7
I1
tp280
F-0.13160558430893185
s(I8
I3
I1
tp281
F-0.09924400836416397
s(I16
I1
I0
tp282
F0.3130509400109197
s(I1
I4
I1
tp283
F-0.3327203414073145
s(I19
I9
I1
tp284
F-0.5326878817768158
s(I4
I10
I0
tp285
F-0.30095767251585004
s(I9
I6
I0
tp286
F0.06993428211195347
s(I13
I10
I1
tp287
F-0.13346995419467242
s(I19
I4
I1
tp288
F-0.5347027027027005
s(I20
I3
I0
tp289
F0.8193663771078173
s(I5
I10
I1
tp290
F-0.19954478783975454
s(I18
I4
I0
tp291
F0.45796993876415004
s(I6
I5
I0
tp292
F0.10801190934173617
s(I1
I8
I1
tp293
F-0.33252141872189045
s(I4
I6
I0
tp294
F0.06988562463964379
s(I12
I4
I1
tp295
F-0.06512153347181193
s(I5
I3
I1
tp296
F-0.2010126317987254
s(I8
I5
I0
tp297
F0.10732626855157396
s(I12
I9
I1
tp298
F-0.06679720065777053
s(I15
I1
I0
tp299
F0.3155607070414371
s(I5
I6
I1
tp300
F-0.1996364016541992
s(I13
I8
I0
tp301
F-0.12131816385934684
s(I6
I9
I0
tp302
F-0.21193342559367048
s(I19
I6
I0
tp303
F0.6040354284090412
s(I4
I9
I1
tp304
F-0.23329233725171272
s(I17
I1
I0
tp305
F0.4066801868239908
s(I5
I8
I0
tp306
F-0.1194046433336476
s(I18
I2
I1
tp307
F-0.4714700791295758
s(I3
I3
I0
tp308
F0.2010928801607772
s(I11
I1
I1
tp309
F0.0
s(I15
I10
I1
tp310
F-0.26672254050398964
s(I18
I7
I1
tp311
F-0.4656614476311754
s(I14
I6
I0
tp312
F0.06359743881840002
s(I4
I5
I1
tp313
F-0.23402092397776494
s(I15
I3
I1
tp314
F-0.2684223458196527
s(I5
I4
I0
tp315
F0.15209004463419876
s(I16
I2
I0
tp316
F0.25336724366127544
s(I9
I5
I0
tp317
F0.10675579108733901
s(I15
I6
I1
tp318
F-0.26619866777311696
s(I17
I7
I1
tp319
F-0.40447392378722685
s(I3
I5
I1
tp320
F-0.2677584477973913
s(I7
I9
I0
tp321
F-0.208145401495349
s(I17
I2
I1
tp322
F-0.39745679817410984
s(I10
I3
I1
tp323
F-0.033094448359026356
s(I18
I5
I0
tp324
F0.42460124761869245
s(I14
I4
I1
tp325
F-0.20000413359788327
s(I4
I7
I0
tp326
F-0.02589494306682763
s(I2
I8
I0
tp327
F-0.12065207968339675
s(I8
I6
I0
tp328
F0.06986144001284579
s(I14
I1
I1
tp329
F-0.1993343806846384
s(I16
I4
I1
tp330
F-0.33199667465401894
s(I7
I2
I1
tp331
F-0.132288705539764
s(I13
I7
I0
tp332
F-0.016489104519915365
s(I16
I1
I1
tp333
F-0.3324181831434201
s(I19
I9
I0
tp334
F0.5755480590497455
s(I9
I6
I1
tp335
F-0.06617114475907868
s(I10
I1
I0
tp336
F0.3181575240859672
s(I3
I2
I0
tp337
F0.2566316907716808
s(I16
I8
I1
tp338
F-0.33057535267187477
s(I2
I6
I1
tp339
F-0.2977351009643233
s(I20
I3
I1
tp340
F-0.6058285564258529
s(I6
I5
I1
tp341
F-0.16628433077736504
s(I8
I8
I1
tp342
F-0.09945622820681041
s(I14
I7
I0
tp343
F-0.025177630715584595
s(I12
I4
I0
tp344
F0.15168123474289238
s(I5
I3
I0
tp345
F0.19923042140634534
s(I13
I5
I1
tp346
F-0.1344531310472939
s(I8
I5
I1
tp347
F-0.09881552972143146
s(I16
I3
I0
tp348
F0.2036182581267424
s(I9
I4
I0
tp349
F0.1514623902911009
s(I13
I8
I1
tp350
F-0.1323593257451328
s(I6
I9
I1
tp351
F-0.16641987163667418
s(I1
I3
I1
tp352
F-0.3342544528962175
s(I7
I8
I0
tp353
F-0.11933878802930128
s(I19
I6
I1
tp354
F-0.531908811548635
s(I5
I8
I1
tp355
F-0.20099607488428692
s(I18
I2
I0
tp356
F0.5330927489861986
s(I11
I1
I0
tp357
F0.31683323145160014
s(I12
I6
I1
tp358
F-0.06758411462616695
s(I2
I9
I0
tp359
F-0.2099568580019583
s(I5
I1
I1
tp360
F-0.20034738963988744
s(I8
I7
I0
tp361
F-0.0260563868708066
s(I15
I3
I0
tp362
F0.19249837360073582
s(I5
I4
I1
tp363
F-0.1997021878186678
s(I13
I6
I0
tp364
F0.07262236719804978
s(I19
I8
I0
tp365
F0.6237216847153639
s(I17
I7
I0
tp366
F0.13921523236298344
s(I3
I5
I0
tp367
F0.10726892485301139
s(I11
I3
I1
tp368
F0.0
s(I4
I2
I1
tp369
F-0.23429764044292598
s(I18
I5
I1
tp370
F-0.46811004194423916
s(I14
I4
I0
tp371
F0.14776163074222246
s(I4
I7
I1
tp372
F-0.2335355184882802
s(I12
I5
I0
tp373
F0.1139511458071011
s(I5
I2
I0
tp374
F0.2568288815736177
s(I16
I4
I0
tp375
F0.14764387043232455
s(I17
I5
I1
tp376
F-0.40208615551341353
s(I3
I7
I1
tp377
F-0.26600143049038477
s(I10
I1
I1
tp378
F-0.033741963822225746
s(I18
I3
I0
tp379
F0.4997782705099819
s(I3
I2
I1
tp380
F-0.26853726011030626
s(I16
I8
I0
tp381
F-0.11814919985031959
s(I14
I10
I1
tp382
F-0.19921244126913396
s(I4
I1
I0
tp383
F0.3187558159456952
s(I17
I9
I1
tp384
F-0.40043887747512485
s(I2
I6
I0
tp385
F0.06864726083735752
s(I8
I8
I0
tp386
F-0.12038140643623421
s(I14
I7
I1
tp387
F-0.19954436353280885
s(I16
I6
I1
tp388
F-0.3346158529161067
s(I9
I9
I1
tp389
F-0.06651370108527467
s(I15
I2
I0
tp390
F0.26061095773572823
s(I13
I5
I0
tp391
F0.1065448481900922
s(I21
I7
I1
tp392
F-0.6622585515697421
s(I7
I5
I1
tp393
F-0.13299280026811167
s(I16
I3
I1
tp394
F-0.32976848610675336
s(I9
I4
I1
tp395
F-0.06702664901148073
s(I17
I6
I0
tp396
F0.18894814269952445
s(I20
I8
I1
tp397
F-0.5999422048836837
s(I3
I4
I0
tp398
F0.15085043736939235
s(I16
I10
I1
tp399
F-0.3336129906922722
s(I1
I3
I0
tp400
F0.20141009499828552
s(I7
I8
I1
tp401
F-0.13218927263589036
s(I2
I4
I1
tp402
F-0.30115766779153724
s(I8
I10
I1
tp403
F-0.10002548695443339
s(I14
I5
I0
tp404
F0.1014804109214486
s(I12
I6
I0
tp405
F0.06947084046680359
s(I17
I10
I0
tp406
F-0.13937618964964757
s(I2
I9
I1
tp407
F-0.299140939597318
s(I20
I4
I1
tp408
F-0.6027897275452987
s(I5
I1
I0
tp409
F0.31686960992564406
s(I13
I3
I1
tp410
F-0.13425235725764234
s(I6
I2
I1
tp411
F-0.16665797751246902
s(I8
I7
I1
tp412
F-0.09988999660199036
s(I16
I5
I0
tp413
F0.11168509143506564
s(I9
I10
I0
tp414
F-0.2982800325489647
s(I13
I6
I1
tp415
F-0.13100800744518074
s(I1
I1
I1
tp416
F-0.3345563709139381
s(I7
I10
I0
tp417
F-0.30226261844904456
s(I19
I8
I1
tp418
F-0.5335323337213513
s(I11
I3
I0
tp419
F0.20174310615802138
s(I16
I9
I0
tp420
F-0.20918257245972124
s(I19
I1
I1
tp421
F-0.5354943860919923
s(I4
I2
I0
tp422
F0.255305137489348
s(I2
I7
I0
tp423
F-0.026565135570783705
s.