ccollections
defaultdict
p0
(c__builtin__
float
p1
tp2
Rp3
(I8
I9
I0
tp4
F-0.20842407000700972
s(I12
I5
I1
tp5
F-0.14004502131328186
s(I5
I2
I1
tp6
F-0.11656699282005503
s(I13
I4
I0
tp7
F0.15100457253706517
s(I19
I10
I0
tp8
F0.4490834320763929
s(I17
I5
I0
tp9
F0.21985380806413496
s(I3
I7
I0
tp10
F-0.024486314340384133
s(I11
I5
I1
tp11
F-0.07948286065461797
s(I1
I2
I0
tp12
F0.2568786487962603
s(I18
I3
I1
tp13
F-0.4662143059089638
s(I14
I10
I0
tp14
F-0.2985097557228436
s(I4
I1
I1
tp15
F-0.10644891194572074
s(I12
I7
I0
tp16
F-0.031513026052104105
s(I17
I9
I0
tp17
F-0.05103009588911054
s(I18
I10
I1
tp18
F-0.6272561024091624
s(I11
I9
I1
tp19
F-0.27376882146496234
s(I16
I6
I0
tp20
F0.07465201171326573
s(I9
I9
I0
tp21
F-0.20791326429755377
s(I15
I2
I1
tp22
F-0.2601183292614728
s(I10
I10
I1
tp23
F-0.3641609312671979
s(I21
I7
I0
tp24
F0.9305043831787594
s(I3
I9
I1
tp25
F-0.4628271429443505
s(I7
I5
I0
tp26
F0.10904898417050765
s(I17
I6
I1
tp27
F-0.45784676730276175
s(I20
I8
I0
tp28
F0.7819051121735971
s(I18
I1
I0
tp29
F0.5760594293432421
s(I3
I4
I1
tp30
F-0.24336187417212637
s(I21
I9
I1
tp31
F-0.7562801037421307
s(I11
I2
I0
tp32
F0.26652873563218765
s(I16
I10
I0
tp33
F-0.2905583756345189
s(I14
I8
I1
tp34
F-0.3552353036964682
s(I4
I3
I0
tp35
F0.2024780635499155
s(I2
I4
I0
tp36
F0.15081910259493753
s(I10
I6
I1
tp37
F-0.12990502895865685
s(I8
I10
I0
tp38
F-0.2943416305527984
s(I14
I5
I1
tp39
F-0.26381696122756404
s(I17
I10
I1
tp40
F-0.574106225418985
s(I20
I4
I0
tp41
F0.7963301077232048
s(I13
I3
I0
tp42
F0.20319723723054658
s(I21
I5
I1
tp43
F-0.7047912285971786
s(I6
I2
I0
tp44
F0.2549858450027758
s(I7
I7
I1
tp45
F-0.26388487987096293
s(I16
I5
I1
tp46
F-0.38826815642457974
s(I9
I10
I1
tp47
F-0.39235350206594655
s(I17
I4
I0
tp48
F0.2637586435540387
s(I20
I10
I1
tp49
F-0.7279407543486968
s(I3
I6
I0
tp50
F0.06843431187470658
s(I1
I1
I0
tp51
F0.3166293830870837
s(I7
I10
I1
tp52
F-0.4519383916771158
s(I9
I3
I1
tp53
F-0.06061954331766292
s(I2
I2
I1
tp54
F-0.20412140491317593
s(I21
I10
I0
tp55
F0.9337739761534452
s(I16
I9
I1
tp56
F-0.5041495110653637
s(I19
I1
I0
tp57
F0.7135905457073342
s(I17
I8
I0
tp58
F0.0592021801437766
s(I2
I7
I1
tp59
F-0.3807022442497689
s(I20
I6
I1
tp60
F-0.6444344804394143
s(I13
I1
I1
tp61
F-0.08780303030303088
s(I8
I9
I1
tp62
F-0.3606687160483369
s(I16
I7
I0
tp63
F-0.02896595508292992
s(I9
I8
I0
tp64
F-0.12075291309285557
s(I13
I4
I1
tp65
F-0.1843401803986958
s(I21
I6
I0
tp66
F0.9305925643953836
s(I1
I7
I1
tp67
F-0.40921230650291174
s(I7
I4
I0
tp68
F0.1508730821482403
s(I19
I10
I1
tp69
F-0.6710038047818191
s(I20
I9
I0
tp70
F0.7867414307678415
s(I11
I5
I0
tp71
F0.10770349167404894
s(I1
I2
I1
tp72
F-0.2452712552029356
s(I19
I3
I1
tp73
F-0.5417435315264157
s(I12
I2
I1
tp74
F-0.05459460752649546
s(I2
I5
I0
tp75
F0.10736207593633745
s(I12
I7
I1
tp76
F-0.21636615811373233
s(I20
I5
I0
tp77
F0.7917282127030995
s(I13
I2
I0
tp78
F0.2545721163157463
s(I18
I10
I0
tp79
F0.16492763379333558
s(I6
I3
I0
tp80
F0.19964868049829307
s(I11
I9
I0
tp81
F-0.21323631004467208
s(I10
I10
I0
tp82
F-0.2955117474921419
s(I3
I9
I0
tp83
F-0.2093029389849023
s(I11
I7
I1
tp84
F-0.16246619548667232
s(I18
I1
I1
tp85
F-0.4392290704677776
s(I21
I9
I0
tp86
F0.9384971693257871
s(I11
I2
I1
tp87
F0.012589116505730327
s(I14
I8
I0
tp88
F-0.11593035504058453
s(I4
I3
I1
tp89
F-0.18414030724592903
s(I12
I1
I0
tp90
F0.3099185022582206
s(I15
I9
I1
tp91
F-0.44786304673941874
s(I10
I6
I0
tp92
F0.06440329839610942
s(I18
I8
I1
tp93
F-0.5684414483510288
s(I10
I8
I1
tp94
F-0.23510173511421642
s(I21
I5
I0
tp95
F0.9288050314465406
s(I7
I7
I0
tp96
F-0.027928267140487795
s(I15
I5
I1
tp97
F-0.33116768579491823
s(I17
I4
I1
tp98
F-0.42216638946884116
s(I20
I10
I0
tp99
F0.7474489795918384
s(I3
I6
I1
tp100
F-0.2944572348491358
s(I11
I4
I0
tp101
F0.1486803452280653
s(I9
I3
I0
tp102
F0.19999269255126406
s(I2
I2
I0
tp103
F0.2570855346753171
s(I10
I4
I1
tp104
F-0.0651957044774373
s(I21
I10
I1
tp105
F-0.7823689434600427
s(I17
I8
I1
tp106
F-0.5099668366437274
s(I20
I6
I0
tp107
F0.7802500919455704
s(I13
I1
I0
tp108
F0.3160859241261275
s(I21
I3
I1
tp109
F-0.6839412811387894
s(I11
I8
I0
tp110
F-0.12104938412669382
s(I14
I2
I1
tp111
F-0.19058332876035639
s(I7
I1
I1
tp112
F-0.029385536540830395
s(I16
I7
I1
tp113
F-0.425090570998043
s(I9
I8
I1
tp114
F-0.2657179732153324
s(I21
I6
I1
tp115
F-0.7065789473684205
s(I3
I8
I0
tp116
F-0.11697809076165455
s(I1
I7
I0
tp117
F-0.024343740424228343
s(I7
I4
I1
tp118
F-0.14157206202785935
s(I9
I1
I1
tp119
F0.01804169002769864
s(I20
I9
I1
tp120
F-0.7103574702108159
s(I21
I8
I0
tp121
F0.9320872274143298
s(I14
I9
I0
tp122
F-0.20152733873744233
s(I19
I3
I0
tp123
F0.6692275457466141
s(I12
I2
I0
tp124
F0.25604792841072643
s(I2
I5
I1
tp125
F-0.29589800346844464
s(I10
I7
I0
tp126
F-0.02215849138280945
s(I6
I6
I1
tp127
F-0.2231729998123099
s(I20
I5
I1
tp128
F-0.6403794502542961
s(I13
I2
I1
tp129
F-0.11900191938579749
s(I21
I4
I0
tp130
F0.9347660223804699
s(I6
I3
I1
tp131
F-0.13661771996102628
s(I8
I2
I1
tp132
F-0.04887024919363615
s(I1
I5
I1
tp133
F-0.33076099171231543
s(I7
I6
I0
tp134
F0.07302767011433434
s(I6
I10
I1
tp135
F-0.46634512417651247
s(I11
I7
I0
tp136
F-0.03151333256377722
s(I19
I5
I1
tp137
F-0.5699025487256371
s(I9
I2
I0
tp138
F0.25662440994695274
s(I2
I3
I0
tp139
F0.20159323578282215
s(I1
I9
I1
tp140
F-0.5151795305263583
s(I12
I1
I1
tp141
F-0.026703010420686506
s(I15
I9
I0
tp142
F-0.20823177101469503
s(I20
I7
I0
tp143
F0.7870234604105568
s(I18
I8
I0
tp144
F0.3780329899228741
s(I6
I1
I0
tp145
F0.31680590487986854
s(I12
I8
I1
tp146
F-0.25871113677928576
s(I5
I7
I1
tp147
F-0.30512293495928167
s(I10
I8
I0
tp148
F-0.12190366144291064
s(I8
I1
I0
tp149
F0.3179763517674613
s(I1
I6
I0
tp150
F0.07148503900140134
s(I4
I8
I1
tp151
F-0.3814651261266724
s(I15
I5
I0
tp152
F0.10035303575797846
s(I11
I4
I1
tp153
F-0.053234348829839316
s(I19
I2
I0
tp154
F0.6990067151650802
s(I12
I3
I0
tp155
F0.2002421673982151
s(I10
I4
I0
tp156
F0.15167238357724241
s(I18
I6
I1
tp157
F-0.5135636261034259
s(I1
I10
I0
tp158
F-0.29311299444624217
s(I4
I4
I1
tp159
F-0.21792338031086175
s(I21
I3
I0
tp160
F0.9444873776403916
s(I11
I8
I1
tp161
F-0.21559685326644507
s(I14
I2
I0
tp162
F0.2544544295531622
s(I7
I1
I0
tp163
F0.31608128488579157
s(I15
I7
I1
tp164
F-0.3653436140074212
s(I3
I8
I1
tp165
F-0.4135264110580877
s(I11
I6
I0
tp166
F0.07406811230942481
s(I9
I1
I0
tp167
F0.31443300537735064
s(I17
I3
I1
tp168
F-0.4093515188205549
s(I10
I2
I1
tp169
F0.0021795842800646347
s(I3
I1
I1
tp170
F-0.1370623658530244
s(I21
I8
I1
tp171
F-0.7378241386909571
s(I14
I9
I1
tp172
F-0.4093875775046202
s(I15
I8
I0
tp173
F-0.11861825481984038
s(I10
I7
I1
tp174
F-0.17969606899150276
s(I18
I9
I0
tp175
F0.26594186570527123
s(I21
I1
I1
tp176
F-0.6581828943474374
s(I6
I6
I0
tp177
F0.06944387272053917
s(I11
I10
I0
tp178
F-0.30492872064461185
s(I7
I3
I1
tp179
F-0.11423497824904956
s(I10
I9
I0
tp180
F-0.21097600952762285
s(I21
I4
I1
tp181
F-0.6763451925904149
s(I3
I10
I0
tp182
F-0.29875376020627553
s(I8
I2
I0
tp183
F0.25801804347759943
s(I1
I5
I0
tp184
F0.111255186721993
s(I7
I6
I1
tp185
F-0.20331907961718396
s(I9
I7
I1
tp186
F-0.20807515994156361
s(I15
I4
I0
tp187
F0.16008492569002086
s(I6
I10
I0
tp188
F-0.2985757384854513
s(I19
I5
I0
tp189
F0.6053134962805535
s(I9
I2
I1
tp190
F-0.018660279066651363
s(I2
I3
I1
tp191
F-0.24451492602338676
s(I20
I2
I1
tp192
F-0.6095680761818402
s(I10
I5
I0
tp193
F0.10946894689468972
s(I6
I4
I1
tp194
F-0.16785829800997282
s(I1
I9
I0
tp195
F-0.2093013779567623
s(I2
I10
I1
tp196
F-0.5455141543249863
s(I20
I7
I1
tp197
F-0.6603999316356198
s(I21
I2
I0
tp198
F0.9463820926600736
s(I6
I1
I1
tp199
F-0.055434958415268173
s(I8
I4
I1
tp200
F-0.11503389045594517
s(I14
I3
I0
tp201
F0.19961522946597493
s(I12
I8
I0
tp202
F-0.11914882913700728
s(I5
I7
I0
tp203
F-0.02651415857346489
s(I13
I9
I1
tp204
F-0.3673160728018435
s(I6
I8
I1
tp205
F-0.3456080535314964
s(I8
I1
I1
tp206
F-0.003743288334829185
s(I1
I6
I1
tp207
F-0.35645426344327524
s(I19
I7
I1
tp208
F-0.6026270275323722
s(I4
I8
I0
tp209
F-0.11977311401021007
s(I2
I1
I0
tp210
F0.3140802691274102
s(I5
I9
I1
tp211
F-0.42656514237151427
s(I19
I2
I1
tp212
F-0.5401518366577063
s(I12
I3
I1
tp213
F-0.09517893831525667
s(I20
I1
I0
tp214
F0.841512543490204
s(I18
I6
I0
tp215
F0.40147278666740494
s(I6
I7
I0
tp216
F-0.023003477711034136
s(I1
I10
I1
tp217
F-0.5655293549378718
s(I4
I4
I0
tp218
F0.15324020518005088
s(I12
I10
I1
tp219
F-0.376346683414657
s(I5
I5
I1
tp220
F-0.21899661539779763
s(I8
I3
I0
tp221
F0.20172313912068363
s(I1
I4
I0
tp222
F0.15645994832041385
s(I4
I10
I1
tp223
F-0.5002681892897253
s(I15
I7
I0
tp224
F-0.023997751308808445
s(I13
I10
I0
tp225
F-0.29506696614258593
s(I11
I6
I1
tp226
F-0.10524754734200303
s(I19
I4
I0
tp227
F0.6431702734674
s(I17
I3
I0
tp228
F0.293562393807814
s(I5
I10
I0
tp229
F-0.29747045460345445
s(I10
I2
I0
tp230
F0.25398187198406436
s(I18
I4
I1
tp231
F-0.4968874700718286
s(I3
I1
I0
tp232
F0.31771113213705776
s(I1
I8
I0
tp233
F-0.12325559296264085
s(I4
I6
I1
tp234
F-0.26911433338493573
s(I15
I8
I1
tp235
F-0.41225968561911913
s(I18
I9
I1
tp236
F-0.5992261808802175
s(I21
I1
I0
tp237
F0.9515561922125281
s(I11
I10
I1
tp238
F-0.3393209946633377
s(I7
I3
I0
tp239
F0.1977001961193892
s(I12
I9
I0
tp240
F-0.20963867480732656
s(I15
I1
I1
tp241
F-0.22605005122200958
s(I5
I6
I0
tp242
F0.06914803563613844
s(I10
I9
I1
tp243
F-0.3000702094582174
s(I3
I10
I1
tp244
F-0.5243814660966252
s(I4
I9
I0
tp245
F-0.20784086129488336
s(I9
I7
I0
tp246
F-0.027416886656139432
s(I15
I4
I1
tp247
F-0.307920733858638
s(I17
I1
I1
tp248
F-0.3759328358208958
s(I3
I3
I1
tp249
F-0.20748124460864242
s(I15
I10
I0
tp250
F-0.30038479189465905
s(I20
I2
I0
tp251
F0.8325645756457614
s(I10
I5
I1
tp252
F-0.10008034548558979
s(I18
I7
I0
tp253
F0.41640414041403917
s(I6
I4
I0
tp254
F0.15242629196374474
s(I14
I6
I1
tp255
F-0.28690642834068725
s(I4
I5
I0
tp256
F0.10628989806217493
s(I2
I10
I0
tp257
F-0.2965343171858906
s(I21
I2
I1
tp258
F-0.6630299480120079
s(I8
I4
I0
tp259
F0.1503149538355356
s(I14
I3
I1
tp260
F-0.21910112359550793
s(I16
I2
I1
tp261
F-0.3280452166093948
s(I9
I5
I1
tp262
F-0.12366714485859885
s(I15
I6
I0
tp263
F0.06084656084656072
s(I13
I9
I0
tp264
F-0.21407931309684403
s(I6
I8
I0
tp265
F-0.12005110576299578
s(I7
I9
I1
tp266
F-0.3863617111393456
s(I19
I7
I0
tp267
F0.6169842815412446
s(I17
I2
I0
tp268
F0.3550144333736839
s(I2
I1
I1
tp269
F-0.17696895281529648
s(I5
I9
I0
tp270
F-0.20719598619055307
s(I10
I3
I0
tp271
F0.2019289995943677
s(I2
I8
I1
tp272
F-0.4363058437248985
s(I20
I1
I1
tp273
F-0.5915010281014393
s(I6
I7
I1
tp274
F-0.28345208468277494
s(I8
I6
I1
tp275
F-0.17312307744312805
s(I14
I1
I0
tp276
F0.3220254427538046
s(I7
I2
I0
tp277
F0.2560682524492814
s(I12
I10
I0
tp278
F-0.2929323158262248
s(I5
I5
I0
tp279
F0.10598348675607008
s(I13
I7
I1
tp280
F-0.2647860070779353
s(I8
I3
I1
tp281
F-0.0832419297683129
s(I16
I1
I0
tp282
F0.3254333640257822
s(I1
I4
I1
tp283
F-0.3019224543012409
s(I19
I9
I1
tp284
F-0.6496377658331374
s(I4
I10
I0
tp285
F-0.2949247599328326
s(I9
I6
I0
tp286
F0.06910850245107662
s(I13
I10
I1
tp287
F-0.4055296029247477
s(I19
I4
I1
tp288
F-0.563425388721278
s(I20
I3
I0
tp289
F0.8162998881014542
s(I5
I10
I1
tp290
F-0.48605519550195553
s(I18
I4
I0
tp291
F0.4605174353205866
s(I6
I5
I0
tp292
F0.10823794368409495
s(I1
I8
I1
tp293
F-0.4653863764440704
s(I4
I6
I0
tp294
F0.07024656466231376
s(I12
I4
I1
tp295
F-0.11611897337490971
s(I5
I3
I1
tp296
F-0.15934032828652064
s(I8
I5
I0
tp297
F0.10816481379653649
s(I12
I9
I1
tp298
F-0.3177935601516408
s(I15
I1
I0
tp299
F0.3168648763101262
s(I5
I6
I1
tp300
F-0.24293397610204592
s(I13
I8
I0
tp301
F-0.1156900860871979
s(I6
I9
I0
tp302
F-0.20910144450284587
s(I19
I6
I0
tp303
F0.5942611393119008
s(I4
I9
I1
tp304
F-0.44956594166187286
s(I17
I1
I0
tp305
F0.403170001870208
s(I5
I8
I0
tp306
F-0.11970982559900113
s(I18
I2
I1
tp307
F-0.46642897203749795
s(I3
I3
I0
tp308
F0.20015564510278402
s(I11
I1
I1
tp309
F0.05085245976072096
s(I15
I10
I1
tp310
F-0.496029629629629
s(I18
I7
I1
tp311
F-0.5451824286061026
s(I14
I6
I0
tp312
F0.06520926756352699
s(I4
I5
I1
tp313
F-0.2436927596336607
s(I15
I3
I1
tp314
F-0.2735665408211432
s(I5
I4
I0
tp315
F0.1534792719108368
s(I16
I2
I0
tp316
F0.2673243503368632
s(I9
I5
I0
tp317
F0.10945930328043335
s(I15
I6
I1
tp318
F-0.349746880150694
s(I17
I7
I1
tp319
F-0.4805778832194315
s(I3
I5
I1
tp320
F-0.2728264067990218
s(I7
I9
I0
tp321
F-0.20841384812935682
s(I17
I2
I1
tp322
F-0.39247043738424064
s(I10
I3
I1
tp323
F-0.034888312037433505
s(I18
I5
I0
tp324
F0.43091203936699546
s(I14
I4
I1
tp325
F-0.23929512069293019
s(I4
I7
I0
tp326
F-0.026502438406279978
s(I2
I8
I0
tp327
F-0.11882901133160496
s(I8
I6
I0
tp328
F0.06692915807929849
s(I14
I1
I1
tp329
F-0.16255261371350954
s(I16
I4
I1
tp330
F-0.36663439819296634
s(I7
I2
I1
tp331
F-0.07386488357563839
s(I13
I7
I0
tp332
F-0.030191826522101887
s(I16
I1
I1
tp333
F-0.3069151324651982
s(I19
I9
I0
tp334
F0.575576069339723
s(I9
I6
I1
tp335
F-0.15323865312486992
s(I10
I1
I0
tp336
F0.3163724461731281
s(I3
I2
I0
tp337
F0.25703190526823216
s(I16
I8
I1
tp338
F-0.4518632544416624
s(I2
I6
I1
tp339
F-0.3238590732916644
s(I20
I3
I1
tp340
F-0.6125163417268249
s(I6
I5
I1
tp341
F-0.1940235118238634
s(I8
I8
I1
tp342
F-0.29429742074153986
s(I14
I7
I0
tp343
F-0.02243101141772708
s(I12
I4
I0
tp344
F0.1610520991401126
s(I5
I3
I0
tp345
F0.2042838310715648
s(I13
I5
I1
tp346
F-0.2071606013266075
s(I8
I5
I1
tp347
F-0.14935070428492866
s(I16
I3
I0
tp348
F0.19894949494949496
s(I9
I4
I0
tp349
F0.1468910274880401
s(I13
I8
I1
tp350
F-0.3231118248323996
s(I6
I9
I1
tp351
F-0.40612517785815877
s(I1
I3
I1
tp352
F-0.27980655089030837
s(I7
I8
I0
tp353
F-0.11846734491919335
s(I19
I6
I1
tp354
F-0.5786778398510238
s(I5
I8
I1
tp355
F-0.36645872001100077
s(I18
I2
I0
tp356
F0.5391885009337345
s(I11
I1
I0
tp357
F0.3257871990121391
s(I12
I6
I1
tp358
F-0.16803782962194497
s(I2
I9
I0
tp359
F-0.21182101029180675
s(I5
I1
I1
tp360
F-0.07962621629731255
s(I8
I7
I0
tp361
F-0.02536631673683787
s(I15
I3
I0
tp362
F0.2027238300385644
s(I5
I4
I1
tp363
F-0.18751289102784557
s(I13
I6
I0
tp364
F0.07489702709518387
s(I19
I8
I0
tp365
F0.6257660069028655
s(I17
I7
I0
tp366
F0.14585494671319524
s(I3
I5
I0
tp367
F0.10537871195738088
s(I11
I3
I1
tp368
F-0.02684258416742492
s(I4
I2
I1
tp369
F-0.1530578769252032
s(I18
I5
I1
tp370
F-0.5067239144523695
s(I14
I4
I0
tp371
F0.16233644274713616
s(I4
I7
I1
tp372
F-0.3271711870103717
s(I12
I5
I0
tp373
F0.11476569407603862
s(I5
I2
I0
tp374
F0.2558425899797329
s(I16
I4
I0
tp375
F0.14982996599319912
s(I17
I5
I1
tp376
F-0.4499356775300188
s(I3
I7
I1
tp377
F-0.354808135439947
s(I10
I1
I1
tp378
F0.04202652555206088
s(I18
I3
I0
tp379
F0.49016272608720207
s(I3
I2
I1
tp380
F-0.17721507991660687
s(I16
I8
I0
tp381
F-0.1251907170962827
s(I14
I10
I1
tp382
F-0.45892289130196207
s(I4
I1
I0
tp383
F0.3165618585041045
s(I17
I9
I1
tp384
F-0.5464838881965417
s(I2
I6
I0
tp385
F0.06904607310918094
s(I8
I8
I0
tp386
F-0.11865517337297565
s(I14
I7
I1
tp387
F-0.3191999564008926
s(I16
I6
I1
tp388
F-0.40290375308483833
s(I9
I9
I1
tp389
F-0.33053155561514524
s(I15
I2
I0
tp390
F0.24925660311352218
s(I13
I5
I0
tp391
F0.10857174787662079
s(I21
I7
I1
tp392
F-0.7148075096793063
s(I7
I5
I1
tp393
F-0.1673879351959257
s(I16
I3
I1
tp394
F-0.34493060909791734
s(I9
I4
I1
tp395
F-0.0951138480124835
s(I17
I6
I0
tp396
F0.17471296819122917
s(I20
I8
I1
tp397
F-0.6772899361473758
s(I3
I4
I0
tp398
F0.15140310115840253
s(I16
I10
I1
tp399
F-0.5362095531587053
s(I1
I3
I0
tp400
F0.19914419731082128
s(I7
I8
I1
tp401
F-0.3276932998438734
s(I2
I4
I1
tp402
F-0.27670821470731616
s(I8
I10
I1
tp403
F-0.4228210583189824
s(I14
I5
I0
tp404
F0.10440705377414171
s(I12
I6
I0
tp405
F0.059722187208511066
s(I17
I10
I0
tp406
F-0.14515373078365224
s(I2
I9
I1
tp407
F-0.49413653497137505
s(I20
I4
I1
tp408
F-0.6323267184354293
s(I5
I1
I0
tp409
F0.31588511400630703
s(I13
I3
I1
tp410
F-0.1542151459481552
s(I6
I2
I1
tp411
F-0.0917630552323591
s(I8
I7
I1
tp412
F-0.23650682563639935
s(I16
I5
I0
tp413
F0.10201608015837792
s(I9
I10
I0
tp414
F-0.29649875954662674
s(I13
I6
I1
tp415
F-0.23191179848403753
s(I1
I1
I1
tp416
F-0.20876442324553857
s(I7
I10
I0
tp417
F-0.2950126532509971
s(I19
I8
I1
tp418
F-0.6307994206419678
s(I11
I3
I0
tp419
F0.2060528010302632
s(I16
I9
I0
tp420
F-0.205725512208813
s(I19
I1
I1
tp421
F-0.5143761049595192
s(I4
I2
I0
tp422
F0.25722177913514016
s(I2
I7
I0
tp423
F-0.026420671115806833
s.