ccollections
defaultdict
p0
(c__builtin__
int
p1
tp2
Rp3
(I16
I6
tp4
F0.07037908177291793
s(I6
I9
tp5
F-0.2082245388215781
s(I12
I1
tp6
F0.27134724857684994
s(I7
I3
tp7
F0.20056061713463966
s(I16
I9
tp8
F-0.2088026069563947
s(I14
I4
tp9
F0.16597510373443983
s(I13
I4
tp10
F0.06995884773662552
s(I19
I4
tp11
F0.5833333333333336
s(I18
I4
tp12
F0.4534412955465588
s(I15
I1
tp13
F0.22549019607843124
s(I21
I9
tp14
F0.9355044663792792
s(I20
I7
tp15
F0.6899999999999997
s(I1
I6
tp16
F0.0680442600247664
s(I21
I6
tp17
F0.9360708138677167
s(I3
I7
tp18
F-0.02491529148140194
s(I2
I5
tp19
F0.10865419159805699
s(I8
I5
tp20
F0.10769663601786189
s(I5
I8
tp21
F-0.12158091261035324
s(I10
I8
tp22
F0.04768786362872646
s(I6
I7
tp23
F-0.026903612197605675
s(I5
I5
tp24
F0.10778778770079243
s(I11
I5
tp25
F0.08766233766233768
s(I10
I7
tp26
F-0.0265520346175617
s(I7
I6
tp27
F0.06974948474861287
s(I6
I10
tp28
F-0.29565408603492993
s(I12
I6
tp29
F0.073188992619982
s(I17
I2
tp30
F0.38961038961038963
s(I14
I1
tp31
F0.32075471698113206
s(I13
I7
tp32
F0.04242424242424247
s(I20
I9
tp33
F0.7958755928719189
s(I19
I3
tp34
F0.6473429951690819
s(I18
I9
tp35
F0.27060925082079834
s(I15
I4
tp36
F0.07598784194528882
s(I20
I4
tp37
F0.8416666666666665
s(I1
I1
tp38
F0.31771014025366784
s(I4
I10
tp39
F-0.29659480834632473
s(I3
I2
tp40
F0.25518130571343217
s(I2
I6
tp41
F0.06906825483732201
s(I8
I2
tp42
F0.2563416621917431
s(I4
I5
tp43
F0.10835483995223316
s(I9
I3
tp44
F0.1991410769214936
s(I7
I5
tp45
F0.10851451072751185
s(I14
I2
tp46
F0.2105263157894737
s(I13
I10
tp47
F-0.09811960503732844
s(I18
I10
tp48
F0.16911432464506138
s(I3
I1
tp49
F0.3155567332293816
s(I9
I9
tp50
F-0.09382505064789577
s(I7
I8
tp51
F-0.119929707260893
s(I14
I8
tp52
F-0.0475057962253118
s(I12
I8
tp53
F0.07207659153536407
s(I19
I8
tp54
F0.6249208583564313
s(I17
I8
tp55
F0.051737751841386466
s(I20
I3
tp56
F0.7731092436974795
s(I21
I2
tp57
F0.9272727272727271
s(I2
I1
tp58
F0.3153438935017082
s(I8
I9
tp59
F-0.16667512249040956
s(I9
I4
tp60
F0.1512614066832424
s(I5
I1
tp61
F0.31581611422848616
s(I10
I3
tp62
F0.2007574894325882
s(I16
I7
tp63
F0.014492753623188408
s(I12
I2
tp64
F0.2970873786407767
s(I11
I10
tp65
F0.006237538845386891
s(I17
I6
tp66
F0.185181527428534
s(I16
I10
tp67
F-0.24099436381952902
s(I14
I5
tp68
F0.040963855421686755
s(I13
I3
tp69
F0.23893805309734514
s(I19
I7
tp70
F0.6235294117647059
s(I18
I5
tp71
F0.39565217391304364
s(I16
I4
tp72
F0.17824773413897282
s(I21
I8
tp73
F0.9337557454101664
s(I1
I5
tp74
F0.10720077458963678
s(I21
I5
tp75
F0.8627450980392156
s(I3
I6
tp76
F0.07000914974383111
s(I2
I2
tp77
F0.2556170847457646
s(I1
I10
tp78
F-0.296749323222627
s(I8
I6
tp79
F0.06937579336203316
s(I4
I1
tp80
F0.315947978313083
s(I10
I9
tp81
F-0.010356728683116496
s(I9
I7
tp82
F-0.02632443705528204
s(I6
I4
tp83
F0.15074161112191461
s(I5
I4
tp84
F0.15151350814903417
s(I11
I4
tp85
F0.2199036918138041
s(I10
I4
tp86
F0.15055673940119824
s(I7
I1
tp87
F0.31624431254840435
s(I12
I7
tp88
F-0.014234875444839866
s(I11
I9
tp89
F0.08183434813606627
s(I17
I1
tp90
F0.384083044982699
s(I15
I10
tp91
F-0.19523655445042915
s(I14
I6
tp92
F0.07220425843450562
s(I13
I6
tp93
F0.06756293820750632
s(I20
I10
tp94
F0.739625232112935
s(I19
I2
tp95
F0.7450980392156864
s(I18
I6
tp96
F0.4027954547186675
s(I15
I7
tp97
F-0.045751633986928074
s(I20
I5
tp98
F0.7481481481481483
s(I3
I5
tp99
F0.10661243495914842
s(I2
I7
tp100
F-0.026065952542401113
s(I8
I3
tp101
F0.20116167869072718
s(I5
I10
tp102
F-0.2968161109177144
s(I4
I6
tp103
F0.06845269751612928
s(I10
I10
tp104
F-0.085411896094634
s(I9
I2
tp105
F0.2559275088942674
s(I6
I1
tp106
F0.31617295170260123
s(I5
I7
tp107
F-0.02494580006801882
s(I11
I3
tp108
F0.24471830985915508
s(I7
I4
tp109
F0.15145074315628776
s(I12
I4
tp110
F0.13152400835073066
s(I15
I9
tp111
F-0.14567220549261042
s(I14
I3
tp112
F0.18954248366013066
s(I13
I9
tp113
F-0.035809276553619575
s(I19
I1
tp114
F0.792452830188679
s(I16
I3
tp115
F0.2319201995012469
s(I1
I3
tp116
F0.2022769590661168
s(I4
I8
tp117
F-0.11839042546217822
s(I2
I8
tp118
F-0.11928532849802512
s(I9
I8
tp119
F-0.11944808190154736
s(I6
I2
tp120
F0.25555728909862085
s(I14
I9
tp121
F-0.09242747755068406
s(I12
I9
tp122
F0.020156108704963697
s(I18
I1
tp123
F0.536231884057971
s(I21
I1
tp124
F0.9682539682539681
s(I3
I10
tp125
F-0.2966134873721333
s(I8
I10
tp126
F-0.23657318239485864
s(I17
I7
tp127
F0.07042253521126764
s(I12
I3
tp128
F0.1576673866090711
s(I17
I5
tp129
F0.30914826498422715
s(I14
I10
tp130
F-0.1493433069496432
s(I13
I2
tp131
F0.2469635627530365
s(I19
I6
tp132
F0.6001537314114435
s(I18
I2
tp133
F0.42408376963350763
s(I17
I10
tp134
F-0.13850568854804526
s(I15
I3
tp135
F0.1506024096385542
s(I20
I1
tp136
F0.8526315789473686
s(I1
I4
tp137
F0.15192557259362496
s(I16
I2
tp138
F0.28846153846153844
s(I21
I4
tp139
F0.9857142857142858
s(I3
I9
tp140
F-0.21012350039976335
s(I2
I3
tp141
F0.20109333774428392
s(I1
I9
tp142
F-0.20825684839053923
s(I8
I7
tp143
F-0.02569842338898177
s(I4
I2
tp144
F0.2555427449086686
s(I9
I6
tp145
F0.06869397100507417
s(I6
I5
tp146
F0.10906423808077957
s(I5
I3
tp147
F0.20100104587692882
s(I11
I7
tp148
F0.0748663101604279
s(I10
I5
tp149
F0.1079606527032399
s(I16
I5
tp150
F0.11445783132530128
s(I6
I8
tp151
F-0.11960737338971375
s(I11
I8
tp152
F0.1364979318495181
s(I16
I8
tp153
F-0.11888741558481383
s(I14
I7
tp154
F-0.05777777777777783
s(I13
I5
tp155
F0.10472279260780293
s(I19
I5
tp156
F0.7107843137254898
s(I18
I7
tp157
F0.46835443037974683
s(I15
I6
tp158
F0.06943852384142338
s(I21
I10
tp159
F0.937885681065427
s(I20
I6
tp160
F0.7770719117939019
s(I1
I7
tp161
F-0.02637958294186036
s(I21
I7
tp162
F0.9199999999999999
s(I3
I4
tp163
F0.15150151558441785
s(I2
I4
tp164
F0.15138111714522953
s(I8
I4
tp165
F0.15184045338163998
s(I5
I9
tp166
F-0.20910950072317896
s(I4
I7
tp167
F-0.02647794878918532
s(I9
I1
tp168
F0.3175870692019347
s(I6
I6
tp169
F0.06932164133009301
s(I5
I6
tp170
F0.07022013791077635
s(I11
I2
tp171
F0.2322899505766064
s(I10
I6
tp172
F0.1563794806124934
s(I7
I7
tp173
F-0.027235172857711362
s(I12
I5
tp174
F0.09150326797385618
s(I17
I3
tp175
F0.21379310344827573
s(I15
I8
tp176
F-0.1220964712859538
s(I13
I8
tp177
F0.013687361311774449
s(I20
I8
tp178
F0.7891717151776252
s(I18
I8
tp179
F0.37886787326405114
s(I15
I5
tp180
F0.09601873536299763
s(I1
I2
tp181
F0.25429913392882236
s(I16
I1
tp182
F0.4173669467787116
s(I4
I9
tp183
F-0.20905926787872095
s(I3
I3
tp184
F0.20096263548588836
s(I2
I9
tp185
F-0.2096679593127473
s(I8
I1
tp186
F0.3164950036930059
s(I4
I4
tp187
F0.1510369709776262
s(I6
I3
tp188
F0.20039255959598246
s(I11
I1
tp189
F0.31442080378250614
s(I7
I2
tp190
F0.25565429621294905
s(I7
I10
tp191
F-0.2979328664324045
s(I12
I10
tp192
F-0.046604175948716534
s(I19
I10
tp193
F0.46379227985082083
s(I2
I10
tp194
F-0.2970834788683275
s(I9
I10
tp195
F-0.16468224938411133
s(I10
I1
tp196
F0.31607112125479225
s(I17
I4
tp197
F0.26744186046511625
s(I7
I9
tp198
F-0.21083724589711453
s(I13
I1
tp199
F0.313953488372093
s(I19
I9
tp200
F0.5738381752102311
s(I18
I3
tp201
F0.5714285714285711
s(I17
I9
tp202
F-0.0469056864568171
s(I15
I2
tp203
F0.30823529411764683
s(I20
I2
tp204
F0.797872340425532
s(I21
I3
tp205
F0.9651162790697675
s(I3
I8
tp206
F-0.11995531262888262
s(I1
I8
tp207
F-0.11999802890899108
s(I8
I8
tp208
F-0.11998621164399845
s(I4
I3
tp209
F0.20150612923592084
s(I9
I5
tp210
F0.10748862369670377
s(I5
I2
tp211
F0.2566509653562692
s(I11
I6
tp212
F0.23524039885477352
s(I10
I2
tp213
F0.25678755487479926
s.