ccollections
defaultdict
p0
(c__builtin__
float
p1
tp2
Rp3
(I8
I9
I0
tp4
F-0.20948349543791797
s(I12
I5
I1
tp5
F0.08471494277462846
s(I5
I2
I1
tp6
F-0.01622518040428481
s(I13
I4
I0
tp7
F0.15492171858076154
s(I19
I10
I0
tp8
F0.4622261494439352
s(I17
I5
I0
tp9
F0.21795290554384314
s(I3
I7
I0
tp10
F-0.026676455270473808
s(I11
I5
I1
tp11
F0.1605115462062467
s(I1
I2
I0
tp12
F0.256475952289368
s(I18
I3
I1
tp13
F-0.33134455572128607
s(I14
I10
I0
tp14
F-0.2955061599372951
s(I4
I1
I1
tp15
F-0.008302184628672686
s(I12
I7
I0
tp16
F-0.024922740835464568
s(I17
I9
I0
tp17
F-0.046261154291701405
s(I18
I10
I1
tp18
F-0.4286671364051141
s(I11
I9
I1
tp19
F0.03435972508250027
s(I16
I6
I0
tp20
F0.06672927685235533
s(I9
I9
I0
tp21
F-0.20978148128614382
s(I15
I2
I1
tp22
F-0.058173682002517074
s(I10
I10
I1
tp23
F-0.1215961382860922
s(I21
I7
I0
tp24
F0.9313647246608109
s(I3
I9
I1
tp25
F-0.3949493541833207
s(I7
I5
I0
tp26
F0.10758792391731527
s(I17
I6
I1
tp27
F-0.2766872815272918
s(I20
I8
I0
tp28
F0.7907900992802592
s(I18
I1
I0
tp29
F0.5761844797733342
s(I3
I4
I1
tp30
F-0.16376085479402858
s(I21
I9
I1
tp31
F-0.6491637919741513
s(I11
I2
I0
tp32
F0.25779283113872226
s(I16
I10
I0
tp33
F-0.29581879042436243
s(I14
I8
I1
tp34
F-0.06928046141181662
s(I4
I3
I0
tp35
F0.20071616160673827
s(I2
I4
I0
tp36
F0.1517446296181641
s(I10
I6
I1
tp37
F0.06861432855017219
s(I8
I10
I0
tp38
F-0.29716932330935997
s(I14
I5
I1
tp39
F-0.061685055165496244
s(I17
I10
I1
tp40
F-0.3636878154706206
s(I20
I4
I0
tp41
F0.8020089127820645
s(I13
I3
I0
tp42
F0.20731330416253438
s(I21
I5
I1
tp43
F-0.5907036797934149
s(I6
I2
I0
tp44
F0.2559750479213188
s(I7
I7
I1
tp45
F-0.14214983520787797
s(I16
I5
I1
tp46
F-0.20347027699968795
s(I9
I10
I1
tp47
F-0.19925591859597255
s(I17
I4
I0
tp48
F0.2575261683620852
s(I20
I10
I1
tp49
F-0.5858136338273568
s(I3
I6
I0
tp50
F0.06925202637854276
s(I1
I1
I0
tp51
F0.3166284308587176
s(I7
I10
I1
tp52
F-0.3487471692599911
s(I9
I3
I1
tp53
F0.12114619499620034
s(I2
I2
I1
tp54
F-0.13114925451138285
s(I21
I10
I0
tp55
F0.9373882784755784
s(I16
I9
I1
tp56
F-0.2642438008707172
s(I19
I1
I0
tp57
F0.7236480777355265
s(I17
I8
I0
tp58
F0.04850107542723464
s(I2
I7
I1
tp59
F-0.30914072562933165
s(I20
I6
I1
tp60
F-0.5294457274826808
s(I13
I1
I1
tp61
F0.1413308558820106
s(I8
I9
I1
tp62
F-0.22626104052349086
s(I16
I7
I0
tp63
F-0.026324335917154475
s(I9
I8
I0
tp64
F-0.11992621632505791
s(I13
I4
I1
tp65
F0.05071671176098085
s(I21
I6
I0
tp66
F0.9280754618105573
s(I1
I7
I1
tp67
F-0.34834467523610546
s(I7
I4
I0
tp68
F0.15172574942033448
s(I19
I10
I1
tp69
F-0.5050886140804275
s(I20
I9
I0
tp70
F0.7957004741877238
s(I11
I5
I0
tp71
F0.10885183088779599
s(I1
I2
I1
tp72
F-0.16983332342979593
s(I19
I3
I1
tp73
F-0.4139528546123451
s(I12
I2
I1
tp74
F0.19270135576871622
s(I2
I5
I0
tp75
F0.10715422110029546
s(I12
I7
I1
tp76
F0.08015188909313418
s(I20
I5
I0
tp77
F0.7869385983944438
s(I13
I2
I0
tp78
F0.2540727332565423
s(I18
I10
I0
tp79
F0.16792896901587281
s(I6
I3
I0
tp80
F0.200477768722145
s(I11
I9
I0
tp81
F-0.21123765492507218
s(I10
I10
I0
tp82
F-0.2969787537359188
s(I3
I9
I0
tp83
F-0.20928290250621598
s(I11
I7
I1
tp84
F0.14413460189990793
s(I18
I1
I1
tp85
F-0.29247311827956957
s(I21
I9
I0
tp86
F0.9357033615281379
s(I11
I2
I1
tp87
F0.27452787947428003
s(I14
I8
I0
tp88
F-0.11848163036739116
s(I4
I3
I1
tp89
F-0.08764028186868592
s(I12
I1
I0
tp90
F0.3174894641782066
s(I15
I9
I1
tp91
F-0.1888912595121249
s(I10
I6
I0
tp92
F0.06958989782559456
s(I18
I8
I1
tp93
F-0.3695038910505864
s(I10
I8
I1
tp94
F0.019182086431556566
s(I21
I5
I0
tp95
F0.9312525225346409
s(I7
I7
I0
tp96
F-0.02669268692713844
s(I15
I5
I1
tp97
F-0.1392002213920021
s(I17
I4
I1
tp98
F-0.24783315276272874
s(I20
I10
I0
tp99
F0.7399857394380376
s(I3
I6
I1
tp100
F-0.22173458725182796
s(I11
I4
I0
tp101
F0.15101812389685598
s(I9
I3
I0
tp102
F0.20059551522513527
s(I2
I2
I0
tp103
F0.2556845990966548
s(I10
I4
I1
tp104
F0.13782123155581472
s(I21
I10
I1
tp105
F-0.6768799037855724
s(I17
I8
I1
tp106
F-0.28763577424583175
s(I20
I6
I0
tp107
F0.7652525539160044
s(I13
I1
I0
tp108
F0.31859427482829694
s(I21
I3
I1
tp109
F-0.5811170212765945
s(I11
I8
I0
tp110
F-0.12198901329488145
s(I14
I2
I1
tp111
F0.019610315908947462
s(I7
I1
I1
tp112
F0.111854734499063
s(I16
I7
I1
tp113
F-0.192387355809063
s(I9
I8
I1
tp114
F-0.05031725173262367
s(I21
I6
I1
tp115
F-0.6140174379611
s(I3
I8
I0
tp116
F-0.11967088669050413
s(I1
I7
I0
tp117
F-0.02627079166056012
s(I7
I4
I1
tp118
F-0.021874559130363493
s(I9
I1
I1
tp119
F0.2104306184294209
s(I20
I9
I1
tp120
F-0.5648128568407659
s(I21
I8
I0
tp121
F0.9329278474312032
s(I14
I9
I0
tp122
F-0.21466879704314085
s(I19
I3
I0
tp123
F0.6672448684590881
s(I12
I2
I0
tp124
F0.25890945355351397
s(I2
I5
I1
tp125
F-0.23588189401668186
s(I10
I7
I0
tp126
F-0.026928167488870308
s(I6
I6
I1
tp127
F-0.12324082696964274
s(I20
I5
I1
tp128
F-0.535884256615268
s(I13
I2
I1
tp129
F0.11929358804178446
s(I21
I4
I0
tp130
F0.933514071778984
s(I6
I3
I1
tp131
F-0.022810218978102235
s(I8
I2
I1
tp132
F0.10990068002863272
s(I1
I5
I1
tp133
F-0.27129175182373305
s(I7
I6
I0
tp134
F0.06979060350333581
s(I6
I10
I1
tp135
F-0.377651957436494
s(I11
I7
I0
tp136
F-0.02727423684720371
s(I19
I5
I1
tp137
F-0.4399622234214791
s(I9
I2
I0
tp138
F0.255509208508017
s(I2
I3
I0
tp139
F0.20033408618413087
s(I1
I9
I1
tp140
F-0.4577144120247627
s(I12
I1
I1
tp141
F0.2516405444980739
s(I15
I9
I0
tp142
F-0.2087830006076845
s(I20
I7
I0
tp143
F0.7830110238339633
s(I18
I8
I0
tp144
F0.3749159088397042
s(I6
I1
I0
tp145
F0.3167272492541755
s(I12
I8
I1
tp146
F0.0396387770495295
s(I5
I7
I1
tp147
F-0.21389617510633033
s(I10
I8
I0
tp148
F-0.11570728883883627
s(I8
I1
I0
tp149
F0.3159907115112904
s(I1
I6
I0
tp150
F0.06940404831460502
s(I4
I8
I1
tp151
F-0.3096324906367026
s(I15
I5
I0
tp152
F0.10332897346103524
s(I11
I4
I1
tp153
F0.20151806713705372
s(I19
I2
I0
tp154
F0.6935994770978919
s(I12
I3
I0
tp155
F0.2000702874463681
s(I10
I4
I0
tp156
F0.15193013873374728
s(I18
I6
I1
tp157
F-0.3666378938282258
s(I1
I10
I0
tp158
F-0.2971814082677654
s(I4
I4
I1
tp159
F-0.128216043435726
s(I21
I3
I0
tp160
F0.942327903310562
s(I11
I8
I1
tp161
F0.10103457843901209
s(I14
I2
I0
tp162
F0.24757498880764095
s(I7
I1
I0
tp163
F0.3167117215504032
s(I15
I7
I1
tp164
F-0.1386986301369846
s(I3
I8
I1
tp165
F-0.33605446186490945
s(I11
I6
I0
tp166
F0.07064680887591693
s(I9
I1
I0
tp167
F0.31664922292069103
s(I17
I3
I1
tp168
F-0.22399495222642865
s(I10
I2
I1
tp169
F0.21621682075753193
s(I3
I1
I1
tp170
F-0.048387699435788904
s(I21
I8
I1
tp171
F-0.6239397450753115
s(I14
I9
I1
tp172
F-0.1281967894780711
s(I15
I8
I0
tp173
F-0.1181085310711636
s(I10
I7
I1
tp174
F0.07329849775463587
s(I18
I9
I0
tp175
F0.2702175439458527
s(I21
I1
I1
tp176
F-0.5478589420654919
s(I6
I6
I0
tp177
F0.06920390602504659
s(I11
I10
I0
tp178
F-0.29366749174917595
s(I7
I3
I1
tp179
F0.022086898046101696
s(I10
I9
I0
tp180
F-0.2094109669033852
s(I21
I4
I1
tp181
F-0.6112913692407512
s(I3
I10
I0
tp182
F-0.2968287889568056
s(I8
I2
I0
tp183
F0.2553046311490138
s(I1
I5
I0
tp184
F0.10800983924264863
s(I7
I6
I1
tp185
F-0.08761836538246236
s(I9
I7
I1
tp186
F-0.030043776804960436
s(I15
I4
I0
tp187
F0.15349425529672214
s(I6
I10
I0
tp188
F-0.29691216161187717
s(I19
I5
I0
tp189
F0.6162101787101835
s(I9
I2
I1
tp190
F0.16101051314888315
s(I2
I3
I1
tp191
F-0.16846436531423137
s(I20
I2
I1
tp192
F-0.4970565149136571
s(I10
I5
I0
tp193
F0.10797379158627597
s(I6
I4
I1
tp194
F-0.05505470394196694
s(I1
I9
I0
tp195
F-0.20965768679173197
s(I2
I10
I1
tp196
F-0.48319287668419303
s(I20
I7
I1
tp197
F-0.5265936833946896
s(I21
I2
I0
tp198
F0.9519421604763266
s(I6
I1
I1
tp199
F0.07164740701081249
s(I8
I4
I1
tp200
F0.020419743315987
s(I14
I3
I0
tp201
F0.20078318371568785
s(I12
I8
I0
tp202
F-0.12281585661299621
s(I5
I7
I0
tp203
F-0.02658067910028587
s(I13
I9
I1
tp204
F-0.07751887179811272
s(I6
I8
I1
tp205
F-0.24564728439217148
s(I8
I1
I1
tp206
F0.15601238667313386
s(I1
I6
I1
tp207
F-0.3001019276313794
s(I19
I7
I1
tp208
F-0.43081447672923107
s(I4
I8
I0
tp209
F-0.11945303131137727
s(I2
I1
I0
tp210
F0.3167985684536784
s(I5
I9
I1
tp211
F-0.33855243289205006
s(I19
I2
I1
tp212
F-0.40522164808267613
s(I12
I3
I1
tp213
F0.1591524872656336
s(I20
I1
I0
tp214
F0.8593110093953242
s(I18
I6
I0
tp215
F0.4049684835001858
s(I6
I7
I0
tp216
F-0.02718660036639559
s(I1
I10
I1
tp217
F-0.5080838015874257
s(I4
I4
I0
tp218
F0.15160471313620516
s(I12
I10
I1
tp219
F-0.08659939405014432
s(I5
I5
I1
tp220
F-0.1289788243721162
s(I8
I3
I0
tp221
F0.20119596933289377
s(I1
I4
I0
tp222
F0.15207829422777266
s(I4
I10
I1
tp223
F-0.42546944048859414
s(I15
I7
I0
tp224
F-0.024814792324508242
s(I13
I10
I0
tp225
F-0.3002271425063435
s(I11
I6
I1
tp226
F0.13351175188310693
s(I19
I4
I0
tp227
F0.6476031105423788
s(I17
I3
I0
tp228
F0.29535355913250677
s(I5
I10
I0
tp229
F-0.2967824978377151
s(I10
I2
I0
tp230
F0.25540500561535917
s(I18
I4
I1
tp231
F-0.3349097162510733
s(I3
I1
I0
tp232
F0.3170539268961872
s(I1
I8
I0
tp233
F-0.11982539272838569
s(I4
I6
I1
tp234
F-0.18607319634017977
s(I15
I8
I1
tp235
F-0.15701816236718605
s(I18
I9
I1
tp236
F-0.39681935959302983
s(I21
I1
I0
tp237
F0.9511639264203151
s(I11
I10
I1
tp238
F-0.034863311162016554
s(I7
I3
I0
tp239
F0.20148401846707922
s(I12
I9
I0
tp240
F-0.20924239011435178
s(I15
I1
I1
tp241
F-0.027912877986889496
s(I5
I6
I0
tp242
F0.06887146706195023
s(I10
I9
I1
tp243
F-0.047526701770304304
s(I3
I10
I1
tp244
F-0.4567542865499186
s(I4
I9
I0
tp245
F-0.2092166526380045
s(I9
I7
I0
tp246
F-0.026377641624696024
s(I15
I4
I1
tp247
F-0.09175336917813026
s(I17
I1
I1
tp248
F-0.19018696023536089
s(I3
I3
I1
tp249
F-0.12449437197834078
s(I15
I10
I0
tp250
F-0.29603663787627355
s(I20
I2
I0
tp251
F0.8349377962085294
s(I10
I5
I1
tp252
F0.09627456995563144
s(I18
I7
I0
tp253
F0.4217295658668473
s(I6
I4
I0
tp254
F0.15172077524869818
s(I14
I6
I1
tp255
F-0.07700976709241186
s(I4
I5
I0
tp256
F0.10756593405487438
s(I2
I10
I0
tp257
F-0.29680464976671983
s(I21
I2
I1
tp258
F-0.5716753022452489
s(I8
I4
I0
tp259
F0.15237197604897665
s(I14
I3
I1
tp260
F0.0004421704251152693
s(I16
I2
I1
tp261
F-0.13689312798061146
s(I9
I5
I1
tp262
F0.03656409338939077
s(I15
I6
I0
tp263
F0.0706376479572349
s(I13
I9
I0
tp264
F-0.2102293080265611
s(I6
I8
I0
tp265
F-0.11950525495166661
s(I7
I9
I1
tp266
F-0.281146410865673
s(I19
I7
I0
tp267
F0.6119228456421163
s(I17
I2
I0
tp268
F0.3491033722994064
s(I2
I1
I1
tp269
F-0.09193045760209895
s(I5
I9
I0
tp270
F-0.20939320308716347
s(I10
I3
I0
tp271
F0.20087905191680872
s(I2
I8
I1
tp272
F-0.362184892515489
s(I20
I1
I1
tp273
F-0.46214807090719373
s(I6
I7
I1
tp274
F-0.18200634235406377
s(I8
I6
I1
tp275
F-0.04052096246620827
s(I14
I1
I0
tp276
F0.3129506560987987
s(I7
I2
I0
tp277
F0.2560777594055335
s(I12
I10
I0
tp278
F-0.2990984810865367
s(I5
I5
I0
tp279
F0.10753871162175455
s(I13
I7
I1
tp280
F0.021190322119788593
s(I8
I3
I1
tp281
F0.06134206366449134
s(I16
I1
I0
tp282
F0.3256232331020298
s(I1
I4
I1
tp283
F-0.2424572097078271
s(I19
I9
I1
tp284
F-0.47868066896329514
s(I4
I10
I0
tp285
F-0.2969046488535727
s(I9
I6
I0
tp286
F0.06949078501516655
s(I13
I10
I1
tp287
F-0.1356538210224197
s(I19
I4
I1
tp288
F-0.4313725490196089
s(I20
I3
I0
tp289
F0.819276234679816
s(I5
I10
I1
tp290
F-0.40086935522820144
s(I18
I4
I0
tp291
F0.4539854806775684
s(I6
I5
I0
tp292
F0.10668554723704278
s(I1
I8
I1
tp293
F-0.40474092351074975
s(I4
I6
I0
tp294
F0.06862372936550765
s(I12
I4
I1
tp295
F0.14212228880521863
s(I5
I3
I1
tp296
F-0.04925511547205947
s(I8
I5
I0
tp297
F0.10721297878983162
s(I12
I9
I1
tp298
F-0.02169671496873701
s(I15
I1
I0
tp299
F0.3123393876039861
s(I5
I6
I1
tp300
F-0.1541661076076754
s(I13
I8
I0
tp301
F-0.12136664711162055
s(I6
I9
I0
tp302
F-0.2094492871216039
s(I19
I6
I0
tp303
F0.5990951968428131
s(I4
I9
I1
tp304
F-0.3672119633607361
s(I17
I1
I0
tp305
F0.4003665962470503
s(I5
I8
I0
tp306
F-0.1198825773844681
s(I18
I2
I1
tp307
F-0.3051885272317111
s(I3
I3
I0
tp308
F0.201130634451689
s(I11
I1
I1
tp309
F0.3161137201434129
s(I15
I10
I1
tp310
F-0.22656520073258743
s(I18
I7
I1
tp311
F-0.3479055451353832
s(I14
I6
I0
tp312
F0.06458252211158709
s(I4
I5
I1
tp313
F-0.15876316319001807
s(I15
I3
I1
tp314
F-0.08096522159994458
s(I5
I4
I0
tp315
F0.1514469751946281
s(I16
I2
I0
tp316
F0.2641797392979565
s(I9
I5
I0
tp317
F0.1077632510069211
s(I15
I6
I1
tp318
F-0.14868338775793769
s(I17
I7
I1
tp319
F-0.26496315283562893
s(I3
I5
I1
tp320
F-0.19708367260041582
s(I7
I9
I0
tp321
F-0.2091086186803413
s(I17
I2
I1
tp322
F-0.22996952858935374
s(I10
I3
I1
tp323
F0.17376476646044853
s(I18
I5
I0
tp324
F0.431539360303784
s(I14
I4
I1
tp325
F-0.009397666351308759
s(I4
I7
I0
tp326
F-0.026933675921339714
s(I2
I8
I0
tp327
F-0.1192482446455453
s(I8
I6
I0
tp328
F0.06871944387182607
s(I14
I1
I1
tp329
F0.06643378850428706
s(I16
I4
I1
tp330
F-0.16902509577046335
s(I7
I2
I1
tp331
F0.0612241862678759
s(I13
I7
I0
tp332
F-0.03093923606611216
s(I16
I1
I1
tp333
F-0.0896423969072165
s(I19
I9
I0
tp334
F0.5750393438912972
s(I9
I6
I1
tp335
F0.0066714266589316855
s(I10
I1
I0
tp336
F0.3166380212071184
s(I3
I2
I0
tp337
F0.2559469477174435
s(I16
I8
I1
tp338
F-0.21543896280470393
s(I2
I6
I1
tp339
F-0.25636663458166337
s(I20
I3
I1
tp340
F-0.49943138741470905
s(I6
I5
I1
tp341
F-0.09162549112989603
s(I8
I8
I1
tp342
F-0.16199819095033996
s(I14
I7
I0
tp343
F-0.028557929866057322
s(I12
I4
I0
tp344
F0.1490839526157015
s(I5
I3
I0
tp345
F0.20101972271835486
s(I13
I5
I1
tp346
F0.008653791048197596
s(I8
I5
I1
tp347
F-0.00748451608088963
s(I16
I3
I0
tp348
F0.20203010837052182
s(I9
I4
I0
tp349
F0.15183198005888243
s(I13
I8
I1
tp350
F-0.01812117758397913
s(I6
I9
I1
tp351
F-0.31598336043122244
s(I1
I3
I1
tp352
F-0.20771862862765936
s(I7
I8
I0
tp353
F-0.11925133334139472
s(I19
I6
I1
tp354
F-0.4644749354707253
s(I5
I8
I1
tp355
F-0.277539488515752
s(I18
I2
I0
tp356
F0.5348302754021772
s(I11
I1
I0
tp357
F0.31876213127750824
s(I12
I6
I1
tp358
F0.052938680246127835
s(I2
I9
I0
tp359
F-0.20994683533422884
s(I5
I1
I1
tp360
F0.03507823149410304
s(I8
I7
I0
tp361
F-0.027026609141293834
s(I15
I3
I0
tp362
F0.20436047737527993
s(I5
I4
I1
tp363
F-0.0900358616145967
s(I13
I6
I0
tp364
F0.07707110241356843
s(I19
I8
I0
tp365
F0.6249652805661732
s(I17
I7
I0
tp366
F0.14612644342159625
s(I3
I5
I0
tp367
F0.10757949916915437
s(I11
I3
I1
tp368
F0.23662757284859862
s(I4
I2
I1
tp369
F-0.051432472374550904
s(I18
I5
I1
tp370
F-0.35006619593998417
s(I14
I4
I0
tp371
F0.15526989447319603
s(I4
I7
I1
tp372
F-0.24994454713493677
s(I12
I5
I0
tp373
F0.10593119810201623
s(I5
I2
I0
tp374
F0.2558874732594847
s(I16
I4
I0
tp375
F0.14897285580570585
s(I17
I5
I1
tp376
F-0.26710502932290603
s(I3
I7
I1
tp377
F-0.27656580915566936
s(I10
I1
I1
tp378
F0.26891365610446843
s(I18
I3
I0
tp379
F0.5013950373870045
s(I3
I2
I1
tp380
F-0.08933903035835929
s(I16
I8
I0
tp381
F-0.11927296200530159
s(I14
I10
I1
tp382
F-0.1864839628568208
s(I4
I1
I0
tp383
F0.31678036504218754
s(I17
I9
I1
tp384
F-0.31725505563273826
s(I2
I6
I0
tp385
F0.0691436149423506
s(I8
I8
I0
tp386
F-0.11971870447770494
s(I14
I7
I1
tp387
F-0.0758343828715365
s(I16
I6
I1
tp388
F-0.21018367821436842
s(I9
I9
I1
tp389
F-0.12647522506439055
s(I15
I2
I0
tp390
F0.24970905012801783
s(I13
I5
I0
tp391
F0.10633980296533917
s(I21
I7
I1
tp392
F-0.6050456549118362
s(I7
I5
I1
tp393
F-0.057450427465198566
s(I16
I3
I1
tp394
F-0.16017999526328242
s(I9
I4
I1
tp395
F0.07780371566441166
s(I17
I6
I0
tp396
F0.18753134865606516
s(I20
I8
I1
tp397
F-0.5461365665409093
s(I3
I4
I0
tp398
F0.1513287384967859
s(I16
I10
I1
tp399
F-0.30554235303664357
s(I1
I3
I0
tp400
F0.20039514863730729
s(I7
I8
I1
tp401
F-0.21624223009213425
s(I2
I4
I1
tp402
F-0.19925039836613515
s(I8
I10
I1
tp403
F-0.2575215719579527
s(I14
I5
I0
tp404
F0.11019796917232776
s(I12
I6
I0
tp405
F0.07456787210194002
s(I17
I10
I0
tp406
F-0.1402576433704687
s(I2
I9
I1
tp407
F-0.423458409479454
s(I20
I4
I1
tp408
F-0.5015065913371016
s(I5
I1
I0
tp409
F0.3164369284120556
s(I13
I3
I1
tp410
F0.07753100663397743
s(I6
I2
I1
tp411
F0.025178456519461958
s(I8
I7
I1
tp412
F-0.09173790854976578
s(I16
I5
I0
tp413
F0.10766356059302316
s(I9
I10
I0
tp414
F-0.2971101145989024
s(I13
I6
I1
tp415
F-0.01283299914064733
s(I1
I1
I1
tp416
F-0.1347984364276551
s(I7
I10
I0
tp417
F-0.2968199420808666
s(I19
I8
I1
tp418
F-0.4578108161065923
s(I11
I3
I0
tp419
F0.20280055836677752
s(I16
I9
I0
tp420
F-0.20959821866944078
s(I19
I1
I1
tp421
F-0.37722368037328596
s(I4
I2
I0
tp422
F0.25585680086949514
s(I2
I7
I0
tp423
F-0.027529699358580788
s.